	.file	"bs.c"
	.intel_syntax noprefix
# GNU C2X (Ubuntu 13.3.0-6ubuntu2~24.04) version 13.3.0 (x86_64-linux-gnu)
#	compiled by GNU C version 13.3.0, GMP version 6.3.0, MPFR version 4.2.1, MPC version 1.3.1, isl version isl-0.26-GMP

# GGC heuristics: --param ggc-min-expand=100 --param ggc-min-heapsize=131072
# options passed: -masm=intel -mtune=generic -march=x86-64 -g -O0 -std=c2x -fasynchronous-unwind-tables -fstack-protector-strong -fstack-clash-protection -fcf-protection
	.text
.Ltext0:
	.file 0 "/home/morrantho/Documents/code/c/bs2" "bs.c"
	.type	GetSrc, @function
GetSrc:
.LFB0:
	.file 1 "std/arena.h"
	.loc 1 15 1
	.cfi_startproc
	push	rbp	#
	.cfi_def_cfa_offset 16
	.cfi_offset 6, -16
	mov	rbp, rsp	#,
	.cfi_def_cfa_register 6
# std/arena.h:17: 	return &src;
	.loc 1 17 9
	lea	rax, src.1[rip]	# _1,
# std/arena.h:18: }
	.loc 1 18 1
	pop	rbp	#
	.cfi_def_cfa 7, 8
	ret	
	.cfi_endproc
.LFE0:
	.size	GetSrc, .-GetSrc
	.type	GetStrings, @function
GetStrings:
.LFB1:
	.loc 1 21 1
	.cfi_startproc
	push	rbp	#
	.cfi_def_cfa_offset 16
	.cfi_offset 6, -16
	mov	rbp, rsp	#,
	.cfi_def_cfa_register 6
# std/arena.h:23: 	return &strings;
	.loc 1 23 9
	lea	rax, strings.50[rip]	# _1,
# std/arena.h:24: }
	.loc 1 24 1
	pop	rbp	#
	.cfi_def_cfa 7, 8
	ret	
	.cfi_endproc
.LFE1:
	.size	GetStrings, .-GetStrings
	.globl	ArenaAlloc
	.type	ArenaAlloc, @function
ArenaAlloc:
.LFB2:
	.loc 1 27 1
	.cfi_startproc
	endbr64	
	push	rbp	#
	.cfi_def_cfa_offset 16
	.cfi_offset 6, -16
	mov	rbp, rsp	#,
	.cfi_def_cfa_register 6
	sub	rsp, 16	#,
	mov	QWORD PTR -8[rbp], rdi	# arena, arena
	mov	DWORD PTR -12[rbp], esi	# max, max
# std/arena.h:28: 	max = ALIGN_UP( max, PAGE( 1 ) );
	.loc 1 28 8
	mov	eax, DWORD PTR -12[rbp]	# tmp85, max
	add	eax, 4095	# _1,
# std/arena.h:28: 	max = ALIGN_UP( max, PAGE( 1 ) );
	.loc 1 28 6
	and	eax, -4096	# tmp86,
	mov	DWORD PTR -12[rbp], eax	# max, tmp86
# std/arena.h:29: 	arena->base = malloc( max );
	.loc 1 29 16
	mov	eax, DWORD PTR -12[rbp]	# _2, max
	mov	rdi, rax	#, _2
	call	malloc@PLT	#
	mov	rdx, rax	# _3, tmp87
# std/arena.h:29: 	arena->base = malloc( max );
	.loc 1 29 14 discriminator 1
	mov	rax, QWORD PTR -8[rbp]	# tmp88, arena
	mov	QWORD PTR [rax], rdx	# arena_8(D)->base, _3
# std/arena.h:30: 	arena->used = 1; /* ensures we can offset from 0 */
	.loc 1 30 14
	mov	rax, QWORD PTR -8[rbp]	# tmp89, arena
	mov	DWORD PTR 8[rax], 1	# arena_8(D)->used,
# std/arena.h:31: 	arena->max = max;
	.loc 1 31 13
	mov	rax, QWORD PTR -8[rbp]	# tmp90, arena
	mov	edx, DWORD PTR -12[rbp]	# tmp91, max
	mov	DWORD PTR 12[rax], edx	# arena_8(D)->max, tmp91
# std/arena.h:32: }
	.loc 1 32 1
	nop	
	leave	
	.cfi_def_cfa 7, 8
	ret	
	.cfi_endproc
.LFE2:
	.size	ArenaAlloc, .-ArenaAlloc
	.globl	ArenaPush
	.type	ArenaPush, @function
ArenaPush:
.LFB3:
	.loc 1 35 1
	.cfi_startproc
	endbr64	
	push	rbp	#
	.cfi_def_cfa_offset 16
	.cfi_offset 6, -16
	mov	rbp, rsp	#,
	.cfi_def_cfa_register 6
	sub	rsp, 32	#,
	mov	QWORD PTR -24[rbp], rdi	# arena, arena
	mov	DWORD PTR -28[rbp], esi	# size, size
	mov	DWORD PTR -32[rbp], edx	# p2align, p2align
# std/arena.h:36: 	U32 offset = ALIGN_UP( arena->used, p2align );
	.loc 1 36 15
	mov	rax, QWORD PTR -24[rbp]	# tmp97, arena
	mov	edx, DWORD PTR 8[rax]	# _1, arena_16(D)->used
	mov	eax, DWORD PTR -32[rbp]	# tmp98, p2align
	add	eax, edx	# _2, _1
	lea	edx, -1[rax]	# _3,
	mov	eax, DWORD PTR -32[rbp]	# tmp99, p2align
	neg	eax	# _4
# std/arena.h:36: 	U32 offset = ALIGN_UP( arena->used, p2align );
	.loc 1 36 6
	and	eax, edx	# tmp100, _3
	mov	DWORD PTR -4[rbp], eax	# offset, tmp100
# std/arena.h:37: 	if( offset + size > arena->max )
	.loc 1 37 13
	mov	edx, DWORD PTR -4[rbp]	# tmp101, offset
	mov	eax, DWORD PTR -28[rbp]	# tmp102, size
	add	edx, eax	# _5, tmp102
# std/arena.h:37: 	if( offset + size > arena->max )
	.loc 1 37 27
	mov	rax, QWORD PTR -24[rbp]	# tmp103, arena
	mov	eax, DWORD PTR 12[rax]	# _6, arena_16(D)->max
# std/arena.h:37: 	if( offset + size > arena->max )
	.loc 1 37 4
	cmp	eax, edx	# _6, _5
	jnb	.L7	#,
# std/arena.h:39: 		arena->max <<= 1;
	.loc 1 39 8
	mov	rax, QWORD PTR -24[rbp]	# tmp104, arena
	mov	eax, DWORD PTR 12[rax]	# _7, arena_16(D)->max
# std/arena.h:39: 		arena->max <<= 1;
	.loc 1 39 14
	lea	edx, [rax+rax]	# _8,
	mov	rax, QWORD PTR -24[rbp]	# tmp105, arena
	mov	DWORD PTR 12[rax], edx	# arena_16(D)->max, _8
# std/arena.h:40: 		arena->base = realloc( arena->base, arena->max ); /* owie */
	.loc 1 40 44
	mov	rax, QWORD PTR -24[rbp]	# tmp106, arena
	mov	eax, DWORD PTR 12[rax]	# _9, arena_16(D)->max
# std/arena.h:40: 		arena->base = realloc( arena->base, arena->max ); /* owie */
	.loc 1 40 17
	mov	edx, eax	# _10, _9
# std/arena.h:40: 		arena->base = realloc( arena->base, arena->max ); /* owie */
	.loc 1 40 31
	mov	rax, QWORD PTR -24[rbp]	# tmp107, arena
	mov	rax, QWORD PTR [rax]	# _11, arena_16(D)->base
# std/arena.h:40: 		arena->base = realloc( arena->base, arena->max ); /* owie */
	.loc 1 40 17
	mov	rsi, rdx	#, _10
	mov	rdi, rax	#, _11
	call	realloc@PLT	#
# std/arena.h:40: 		arena->base = realloc( arena->base, arena->max ); /* owie */
	.loc 1 40 15 discriminator 1
	mov	rdx, QWORD PTR -24[rbp]	# tmp108, arena
	mov	QWORD PTR [rdx], rax	# arena_16(D)->base, _12
.L7:
# std/arena.h:42: 	arena->used = offset + size;
	.loc 1 42 23
	mov	edx, DWORD PTR -4[rbp]	# tmp109, offset
	mov	eax, DWORD PTR -28[rbp]	# tmp110, size
	add	edx, eax	# _13, tmp110
# std/arena.h:42: 	arena->used = offset + size;
	.loc 1 42 14
	mov	rax, QWORD PTR -24[rbp]	# tmp111, arena
	mov	DWORD PTR 8[rax], edx	# arena_16(D)->used, _13
# std/arena.h:43: 	return offset;
	.loc 1 43 9
	mov	eax, DWORD PTR -4[rbp]	# _24, offset
# std/arena.h:44: }
	.loc 1 44 1
	leave	
	.cfi_def_cfa 7, 8
	ret	
	.cfi_endproc
.LFE3:
	.size	ArenaPush, .-ArenaPush
	.globl	ArenaPop
	.type	ArenaPop, @function
ArenaPop:
.LFB4:
	.loc 1 47 1
	.cfi_startproc
	endbr64	
	push	rbp	#
	.cfi_def_cfa_offset 16
	.cfi_offset 6, -16
	mov	rbp, rsp	#,
	.cfi_def_cfa_register 6
	mov	QWORD PTR -24[rbp], rdi	# arena, arena
	mov	DWORD PTR -28[rbp], esi	# bytes, bytes
# std/arena.h:48: 	if( bytes > arena->used ){ return 0; }
	.loc 1 48 19
	mov	rax, QWORD PTR -24[rbp]	# tmp87, arena
	mov	eax, DWORD PTR 8[rax]	# _1, arena_7(D)->used
# std/arena.h:48: 	if( bytes > arena->used ){ return 0; }
	.loc 1 48 4
	cmp	eax, DWORD PTR -28[rbp]	# _1, bytes
	jnb	.L10	#,
# std/arena.h:48: 	if( bytes > arena->used ){ return 0; }
	.loc 1 48 36 discriminator 1
	mov	eax, 0	# _4,
# std/arena.h:48: 	if( bytes > arena->used ){ return 0; }
	.loc 1 48 36 is_stmt 0
	jmp	.L11	#
.L10:
# std/arena.h:49: 	U32 offset = arena->used;
	.loc 1 49 6 is_stmt 1
	mov	rax, QWORD PTR -24[rbp]	# tmp88, arena
	mov	eax, DWORD PTR 8[rax]	# tmp89, arena_7(D)->used
	mov	DWORD PTR -4[rbp], eax	# offset, tmp89
# std/arena.h:50: 	arena->used -= bytes;
	.loc 1 50 7
	mov	rax, QWORD PTR -24[rbp]	# tmp90, arena
	mov	eax, DWORD PTR 8[rax]	# _2, arena_7(D)->used
# std/arena.h:50: 	arena->used -= bytes;
	.loc 1 50 14
	sub	eax, DWORD PTR -28[rbp]	# _2, bytes
	mov	edx, eax	# _3, _2
	mov	rax, QWORD PTR -24[rbp]	# tmp91, arena
	mov	DWORD PTR 8[rax], edx	# arena_7(D)->used, _3
# std/arena.h:51: 	return offset;
	.loc 1 51 9
	mov	eax, DWORD PTR -4[rbp]	# _4, offset
.L11:
# std/arena.h:52: }
	.loc 1 52 1
	pop	rbp	#
	.cfi_def_cfa 7, 8
	ret	
	.cfi_endproc
.LFE4:
	.size	ArenaPop, .-ArenaPop
	.globl	ArenaOff
	.type	ArenaOff, @function
ArenaOff:
.LFB5:
	.loc 1 55 1
	.cfi_startproc
	endbr64	
	push	rbp	#
	.cfi_def_cfa_offset 16
	.cfi_offset 6, -16
	mov	rbp, rsp	#,
	.cfi_def_cfa_register 6
	mov	QWORD PTR -8[rbp], rdi	# arena, arena
	mov	DWORD PTR -12[rbp], esi	# offset, offset
# std/arena.h:56: 	return ( I8* )arena->base + offset;
	.loc 1 56 21
	mov	rax, QWORD PTR -8[rbp]	# tmp86, arena
	mov	rdx, QWORD PTR [rax]	# _1, arena_4(D)->base
# std/arena.h:56: 	return ( I8* )arena->base + offset;
	.loc 1 56 28
	mov	eax, DWORD PTR -12[rbp]	# _2, offset
	add	rax, rdx	# _6, _1
# std/arena.h:57: }
	.loc 1 57 1
	pop	rbp	#
	.cfi_def_cfa 7, 8
	ret	
	.cfi_endproc
.LFE5:
	.size	ArenaOff, .-ArenaOff
	.globl	ArenaClear
	.type	ArenaClear, @function
ArenaClear:
.LFB6:
	.loc 1 60 1
	.cfi_startproc
	endbr64	
	push	rbp	#
	.cfi_def_cfa_offset 16
	.cfi_offset 6, -16
	mov	rbp, rsp	#,
	.cfi_def_cfa_register 6
	mov	QWORD PTR -8[rbp], rdi	# arena, arena
# std/arena.h:61: 	arena->used = 0;
	.loc 1 61 14
	mov	rax, QWORD PTR -8[rbp]	# tmp82, arena
	mov	DWORD PTR 8[rax], 0	# arena_2(D)->used,
# std/arena.h:62: }
	.loc 1 62 1
	nop	
	pop	rbp	#
	.cfi_def_cfa 7, 8
	ret	
	.cfi_endproc
.LFE6:
	.size	ArenaClear, .-ArenaClear
	.type	GetConsts, @function
GetConsts:
.LFB7:
	.file 2 "std/vec.h"
	.loc 2 10 1
	.cfi_startproc
	push	rbp	#
	.cfi_def_cfa_offset 16
	.cfi_offset 6, -16
	mov	rbp, rsp	#,
	.cfi_def_cfa_register 6
# std/vec.h:12: 	return &consts;
	.loc 2 12 9
	lea	rax, consts.39[rip]	# _1,
# std/vec.h:13: }
	.loc 2 13 1
	pop	rbp	#
	.cfi_def_cfa 7, 8
	ret	
	.cfi_endproc
.LFE7:
	.size	GetConsts, .-GetConsts
	.type	GetLocals, @function
GetLocals:
.LFB8:
	.loc 2 16 1
	.cfi_startproc
	push	rbp	#
	.cfi_def_cfa_offset 16
	.cfi_offset 6, -16
	mov	rbp, rsp	#,
	.cfi_def_cfa_register 6
# std/vec.h:18: 	return &locals;
	.loc 2 18 9
	lea	rax, locals.38[rip]	# _1,
# std/vec.h:19: }
	.loc 2 19 1
	pop	rbp	#
	.cfi_def_cfa 7, 8
	ret	
	.cfi_endproc
.LFE8:
	.size	GetLocals, .-GetLocals
	.type	GetGlobals, @function
GetGlobals:
.LFB9:
	.loc 2 22 1
	.cfi_startproc
	push	rbp	#
	.cfi_def_cfa_offset 16
	.cfi_offset 6, -16
	mov	rbp, rsp	#,
	.cfi_def_cfa_register 6
# std/vec.h:24: 	return &globals;
	.loc 2 24 9
	lea	rax, globals.49[rip]	# _1,
# std/vec.h:25: }
	.loc 2 25 1
	pop	rbp	#
	.cfi_def_cfa 7, 8
	ret	
	.cfi_endproc
.LFE9:
	.size	GetGlobals, .-GetGlobals
	.type	GetCode, @function
GetCode:
.LFB10:
	.loc 2 28 1
	.cfi_startproc
	push	rbp	#
	.cfi_def_cfa_offset 16
	.cfi_offset 6, -16
	mov	rbp, rsp	#,
	.cfi_def_cfa_register 6
# std/vec.h:30: 	return &code;
	.loc 2 30 9
	lea	rax, code.37[rip]	# _1,
# std/vec.h:31: }
	.loc 2 31 1
	pop	rbp	#
	.cfi_def_cfa 7, 8
	ret	
	.cfi_endproc
.LFE10:
	.size	GetCode, .-GetCode
	.type	GetFuncs, @function
GetFuncs:
.LFB11:
	.loc 2 34 1
	.cfi_startproc
	push	rbp	#
	.cfi_def_cfa_offset 16
	.cfi_offset 6, -16
	mov	rbp, rsp	#,
	.cfi_def_cfa_register 6
# std/vec.h:36: 	return &funcs;
	.loc 2 36 9
	lea	rax, funcs.40[rip]	# _1,
# std/vec.h:37: }
	.loc 2 37 1
	pop	rbp	#
	.cfi_def_cfa 7, 8
	ret	
	.cfi_endproc
.LFE11:
	.size	GetFuncs, .-GetFuncs
	.globl	VecAlloc
	.type	VecAlloc, @function
VecAlloc:
.LFB12:
	.loc 2 40 1
	.cfi_startproc
	endbr64	
	push	rbp	#
	.cfi_def_cfa_offset 16
	.cfi_offset 6, -16
	mov	rbp, rsp	#,
	.cfi_def_cfa_register 6
	sub	rsp, 16	#,
	mov	QWORD PTR -8[rbp], rdi	# vec, vec
	mov	DWORD PTR -12[rbp], esi	# max, max
	mov	DWORD PTR -16[rbp], edx	# szof, szof
# std/vec.h:41: 	vec->base = malloc( max * szof );
	.loc 2 41 26
	mov	eax, DWORD PTR -12[rbp]	# tmp85, max
	imul	eax, DWORD PTR -16[rbp]	# _1, szof
# std/vec.h:41: 	vec->base = malloc( max * szof );
	.loc 2 41 14
	mov	eax, eax	# _2, _1
	mov	rdi, rax	#, _2
	call	malloc@PLT	#
	mov	rdx, rax	# _3, tmp86
# std/vec.h:41: 	vec->base = malloc( max * szof );
	.loc 2 41 12 discriminator 1
	mov	rax, QWORD PTR -8[rbp]	# tmp87, vec
	mov	QWORD PTR [rax], rdx	# vec_8(D)->base, _3
# std/vec.h:42: 	vec->len = 0;
	.loc 2 42 11
	mov	rax, QWORD PTR -8[rbp]	# tmp88, vec
	mov	DWORD PTR 8[rax], 0	# vec_8(D)->D.4073.len,
# std/vec.h:43: 	vec->max = max;
	.loc 2 43 11
	mov	rax, QWORD PTR -8[rbp]	# tmp89, vec
	mov	edx, DWORD PTR -12[rbp]	# tmp90, max
	mov	DWORD PTR 12[rax], edx	# vec_8(D)->max, tmp90
# std/vec.h:44: 	vec->szof = szof;
	.loc 2 44 12
	mov	rax, QWORD PTR -8[rbp]	# tmp91, vec
	mov	edx, DWORD PTR -16[rbp]	# tmp92, szof
	mov	DWORD PTR 16[rax], edx	# vec_8(D)->szof, tmp92
# std/vec.h:45: }
	.loc 2 45 1
	nop	
	leave	
	.cfi_def_cfa 7, 8
	ret	
	.cfi_endproc
.LFE12:
	.size	VecAlloc, .-VecAlloc
	.globl	VecCommit
	.type	VecCommit, @function
VecCommit:
.LFB13:
	.loc 2 48 1
	.cfi_startproc
	endbr64	
	push	rbp	#
	.cfi_def_cfa_offset 16
	.cfi_offset 6, -16
	mov	rbp, rsp	#,
	.cfi_def_cfa_register 6
	sub	rsp, 16	#,
	mov	QWORD PTR -8[rbp], rdi	# vec, vec
# std/vec.h:49: 	if( vec->len > vec->max )
	.loc 2 49 9
	mov	rax, QWORD PTR -8[rbp]	# tmp100, vec
	mov	eax, DWORD PTR 8[rax]	# _1, vec_20(D)->D.4073.len
# std/vec.h:49: 	if( vec->len > vec->max )
	.loc 2 49 20
	mov	rdx, QWORD PTR -8[rbp]	# tmp101, vec
	mov	edx, DWORD PTR 12[rdx]	# _2, vec_20(D)->max
# std/vec.h:49: 	if( vec->len > vec->max )
	.loc 2 49 4
	cmp	edx, eax	# _2, _1
	jnb	.L27	#,
# std/vec.h:51: 		vec->max <<= 1;
	.loc 2 51 6
	mov	rax, QWORD PTR -8[rbp]	# tmp102, vec
	mov	eax, DWORD PTR 12[rax]	# _3, vec_20(D)->max
# std/vec.h:51: 		vec->max <<= 1;
	.loc 2 51 12
	lea	edx, [rax+rax]	# _4,
	mov	rax, QWORD PTR -8[rbp]	# tmp103, vec
	mov	DWORD PTR 12[rax], edx	# vec_20(D)->max, _4
# std/vec.h:52: 		vec->base = realloc( vec->base, vec->max * vec->szof );
	.loc 2 52 38
	mov	rax, QWORD PTR -8[rbp]	# tmp104, vec
	mov	edx, DWORD PTR 12[rax]	# _5, vec_20(D)->max
# std/vec.h:52: 		vec->base = realloc( vec->base, vec->max * vec->szof );
	.loc 2 52 49
	mov	rax, QWORD PTR -8[rbp]	# tmp105, vec
	mov	eax, DWORD PTR 16[rax]	# _6, vec_20(D)->szof
# std/vec.h:52: 		vec->base = realloc( vec->base, vec->max * vec->szof );
	.loc 2 52 44
	imul	eax, edx	# _7, _5
# std/vec.h:52: 		vec->base = realloc( vec->base, vec->max * vec->szof );
	.loc 2 52 15
	mov	edx, eax	# _8, _7
# std/vec.h:52: 		vec->base = realloc( vec->base, vec->max * vec->szof );
	.loc 2 52 27
	mov	rax, QWORD PTR -8[rbp]	# tmp106, vec
	mov	rax, QWORD PTR [rax]	# _9, vec_20(D)->base
# std/vec.h:52: 		vec->base = realloc( vec->base, vec->max * vec->szof );
	.loc 2 52 15
	mov	rsi, rdx	#, _8
	mov	rdi, rax	#, _9
	call	realloc@PLT	#
# std/vec.h:52: 		vec->base = realloc( vec->base, vec->max * vec->szof );
	.loc 2 52 13 discriminator 1
	mov	rdx, QWORD PTR -8[rbp]	# tmp107, vec
	mov	QWORD PTR [rdx], rax	# vec_20(D)->base, _10
.L27:
# std/vec.h:54: 	return ( I8* )vec->base + vec->len++ * vec->szof;
	.loc 2 54 19
	mov	rax, QWORD PTR -8[rbp]	# tmp108, vec
	mov	rsi, QWORD PTR [rax]	# _11, vec_20(D)->base
# std/vec.h:54: 	return ( I8* )vec->base + vec->len++ * vec->szof;
	.loc 2 54 31
	mov	rax, QWORD PTR -8[rbp]	# tmp109, vec
	mov	eax, DWORD PTR 8[rax]	# _12, vec_20(D)->D.4073.len
# std/vec.h:54: 	return ( I8* )vec->base + vec->len++ * vec->szof;
	.loc 2 54 36
	lea	ecx, 1[rax]	# _14,
	mov	rdx, QWORD PTR -8[rbp]	# tmp110, vec
	mov	DWORD PTR 8[rdx], ecx	# vec_20(D)->D.4073.len, _14
# std/vec.h:54: 	return ( I8* )vec->base + vec->len++ * vec->szof;
	.loc 2 54 44
	mov	rdx, QWORD PTR -8[rbp]	# tmp111, vec
	mov	edx, DWORD PTR 16[rdx]	# _15, vec_20(D)->szof
# std/vec.h:54: 	return ( I8* )vec->base + vec->len++ * vec->szof;
	.loc 2 54 39
	imul	eax, edx	# _16, _15
	mov	eax, eax	# _17, _16
# std/vec.h:54: 	return ( I8* )vec->base + vec->len++ * vec->szof;
	.loc 2 54 26
	add	rax, rsi	# _25, _11
# std/vec.h:55: }
	.loc 2 55 1
	leave	
	.cfi_def_cfa 7, 8
	ret	
	.cfi_endproc
.LFE13:
	.size	VecCommit, .-VecCommit
	.globl	VecPush
	.type	VecPush, @function
VecPush:
.LFB14:
	.loc 2 58 1
	.cfi_startproc
	endbr64	
	push	rbp	#
	.cfi_def_cfa_offset 16
	.cfi_offset 6, -16
	mov	rbp, rsp	#,
	.cfi_def_cfa_register 6
	sub	rsp, 32	#,
	mov	QWORD PTR -24[rbp], rdi	# vec, vec
	mov	QWORD PTR -32[rbp], rsi	# src, src
# std/vec.h:59: 	Void *dest = VecCommit( vec );
	.loc 2 59 15
	mov	rax, QWORD PTR -24[rbp]	# tmp87, vec
	mov	rdi, rax	#, tmp87
	call	VecCommit	#
	mov	QWORD PTR -8[rbp], rax	# dest, tmp88
# std/vec.h:60: 	memcpy( dest, src, vec->szof );
	.loc 2 60 24
	mov	rax, QWORD PTR -24[rbp]	# tmp89, vec
	mov	eax, DWORD PTR 16[rax]	# _1, vec_5(D)->szof
# std/vec.h:60: 	memcpy( dest, src, vec->szof );
	.loc 2 60 2
	mov	edx, eax	# _2, _1
	mov	rcx, QWORD PTR -32[rbp]	# tmp90, src
	mov	rax, QWORD PTR -8[rbp]	# tmp91, dest
	mov	rsi, rcx	#, tmp90
	mov	rdi, rax	#, tmp91
	call	memcpy@PLT	#
# std/vec.h:61: 	return vec->len - 1;
	.loc 2 61 12
	mov	rax, QWORD PTR -24[rbp]	# tmp92, vec
	mov	eax, DWORD PTR 8[rax]	# _3, vec_5(D)->D.4073.len
# std/vec.h:61: 	return vec->len - 1;
	.loc 2 61 18
	sub	eax, 1	# _10,
# std/vec.h:62: }
	.loc 2 62 1
	leave	
	.cfi_def_cfa 7, 8
	ret	
	.cfi_endproc
.LFE14:
	.size	VecPush, .-VecPush
	.globl	VecPop
	.type	VecPop, @function
VecPop:
.LFB15:
	.loc 2 65 1
	.cfi_startproc
	endbr64	
	push	rbp	#
	.cfi_def_cfa_offset 16
	.cfi_offset 6, -16
	mov	rbp, rsp	#,
	.cfi_def_cfa_register 6
	mov	QWORD PTR -8[rbp], rdi	# vec, vec
# std/vec.h:66: 	if( vec->len == 0 ){ return vec->base; }
	.loc 2 66 9
	mov	rax, QWORD PTR -8[rbp]	# tmp92, vec
	mov	eax, DWORD PTR 8[rax]	# _1, vec_12(D)->D.4073.len
# std/vec.h:66: 	if( vec->len == 0 ){ return vec->base; }
	.loc 2 66 4
	test	eax, eax	# _1
	jne	.L32	#,
# std/vec.h:66: 	if( vec->len == 0 ){ return vec->base; }
	.loc 2 66 33 discriminator 1
	mov	rax, QWORD PTR -8[rbp]	# tmp93, vec
	mov	rax, QWORD PTR [rax]	# _9, vec_12(D)->base
# std/vec.h:66: 	if( vec->len == 0 ){ return vec->base; }
	.loc 2 66 33 is_stmt 0
	jmp	.L33	#
.L32:
# std/vec.h:67: 	return ( I8* )vec->base + --vec->len * vec->szof;
	.loc 2 67 19 is_stmt 1
	mov	rax, QWORD PTR -8[rbp]	# tmp94, vec
	mov	rcx, QWORD PTR [rax]	# _2, vec_12(D)->base
# std/vec.h:67: 	return ( I8* )vec->base + --vec->len * vec->szof;
	.loc 2 67 33
	mov	rax, QWORD PTR -8[rbp]	# tmp95, vec
	mov	eax, DWORD PTR 8[rax]	# _3, vec_12(D)->D.4073.len
# std/vec.h:67: 	return ( I8* )vec->base + --vec->len * vec->szof;
	.loc 2 67 28
	lea	edx, -1[rax]	# _4,
# std/vec.h:67: 	return ( I8* )vec->base + --vec->len * vec->szof;
	.loc 2 67 26
	mov	rax, QWORD PTR -8[rbp]	# tmp96, vec
	mov	DWORD PTR 8[rax], edx	# vec_12(D)->D.4073.len, _4
# std/vec.h:67: 	return ( I8* )vec->base + --vec->len * vec->szof;
	.loc 2 67 33
	mov	rax, QWORD PTR -8[rbp]	# tmp97, vec
	mov	edx, DWORD PTR 8[rax]	# _5, vec_12(D)->D.4073.len
# std/vec.h:67: 	return ( I8* )vec->base + --vec->len * vec->szof;
	.loc 2 67 44
	mov	rax, QWORD PTR -8[rbp]	# tmp98, vec
	mov	eax, DWORD PTR 16[rax]	# _6, vec_12(D)->szof
# std/vec.h:67: 	return ( I8* )vec->base + --vec->len * vec->szof;
	.loc 2 67 39
	imul	eax, edx	# _7, _5
	mov	eax, eax	# _8, _7
# std/vec.h:67: 	return ( I8* )vec->base + --vec->len * vec->szof;
	.loc 2 67 26
	add	rax, rcx	# _9, _2
.L33:
# std/vec.h:68: }
	.loc 2 68 1
	pop	rbp	#
	.cfi_def_cfa 7, 8
	ret	
	.cfi_endproc
.LFE15:
	.size	VecPop, .-VecPop
	.globl	VecSet
	.type	VecSet, @function
VecSet:
.LFB16:
	.loc 2 71 1
	.cfi_startproc
	endbr64	
	push	rbp	#
	.cfi_def_cfa_offset 16
	.cfi_offset 6, -16
	mov	rbp, rsp	#,
	.cfi_def_cfa_register 6
	sub	rsp, 48	#,
	mov	QWORD PTR -24[rbp], rdi	# vec, vec
	mov	DWORD PTR -28[rbp], esi	# idx, idx
	mov	QWORD PTR -40[rbp], rdx	# src, src
# std/vec.h:72: 	if( idx >= vec->len ){ return; }
	.loc 2 72 16
	mov	rax, QWORD PTR -24[rbp]	# tmp89, vec
	mov	eax, DWORD PTR 8[rax]	# _1, vec_10(D)->D.4073.len
# std/vec.h:72: 	if( idx >= vec->len ){ return; }
	.loc 2 72 4
	cmp	DWORD PTR -28[rbp], eax	# idx, _1
	jnb	.L37	#,
# std/vec.h:73: 	Void *dest = ( I8* )vec->base + idx * vec->szof;
	.loc 2 73 25
	mov	rax, QWORD PTR -24[rbp]	# tmp90, vec
	mov	rdx, QWORD PTR [rax]	# _2, vec_10(D)->base
# std/vec.h:73: 	Void *dest = ( I8* )vec->base + idx * vec->szof;
	.loc 2 73 43
	mov	rax, QWORD PTR -24[rbp]	# tmp91, vec
	mov	eax, DWORD PTR 16[rax]	# _3, vec_10(D)->szof
# std/vec.h:73: 	Void *dest = ( I8* )vec->base + idx * vec->szof;
	.loc 2 73 38
	imul	eax, DWORD PTR -28[rbp]	# _4, idx
	mov	eax, eax	# _5, _4
# std/vec.h:73: 	Void *dest = ( I8* )vec->base + idx * vec->szof;
	.loc 2 73 8
	add	rax, rdx	# tmp92, _2
	mov	QWORD PTR -8[rbp], rax	# dest, tmp92
# std/vec.h:74: 	memcpy( dest, src, vec->szof );
	.loc 2 74 24
	mov	rax, QWORD PTR -24[rbp]	# tmp93, vec
	mov	eax, DWORD PTR 16[rax]	# _6, vec_10(D)->szof
# std/vec.h:74: 	memcpy( dest, src, vec->szof );
	.loc 2 74 2
	mov	edx, eax	# _7, _6
	mov	rcx, QWORD PTR -40[rbp]	# tmp94, src
	mov	rax, QWORD PTR -8[rbp]	# tmp95, dest
	mov	rsi, rcx	#, tmp94
	mov	rdi, rax	#, tmp95
	call	memcpy@PLT	#
	jmp	.L34	#
.L37:
# std/vec.h:72: 	if( idx >= vec->len ){ return; }
	.loc 2 72 25
	nop	
.L34:
# std/vec.h:75: }
	.loc 2 75 1
	leave	
	.cfi_def_cfa 7, 8
	ret	
	.cfi_endproc
.LFE16:
	.size	VecSet, .-VecSet
	.globl	VecGet
	.type	VecGet, @function
VecGet:
.LFB17:
	.loc 2 78 1
	.cfi_startproc
	endbr64	
	push	rbp	#
	.cfi_def_cfa_offset 16
	.cfi_offset 6, -16
	mov	rbp, rsp	#,
	.cfi_def_cfa_register 6
	mov	QWORD PTR -8[rbp], rdi	# vec, vec
	mov	DWORD PTR -12[rbp], esi	# idx, idx
# std/vec.h:79: 	if( idx >= vec->len ){ return vec->base; }
	.loc 2 79 16
	mov	rax, QWORD PTR -8[rbp]	# tmp89, vec
	mov	eax, DWORD PTR 8[rax]	# _1, vec_8(D)->D.4073.len
# std/vec.h:79: 	if( idx >= vec->len ){ return vec->base; }
	.loc 2 79 4
	cmp	DWORD PTR -12[rbp], eax	# idx, _1
	jb	.L39	#,
# std/vec.h:79: 	if( idx >= vec->len ){ return vec->base; }
	.loc 2 79 35 discriminator 1
	mov	rax, QWORD PTR -8[rbp]	# tmp90, vec
	mov	rax, QWORD PTR [rax]	# _6, vec_8(D)->base
# std/vec.h:79: 	if( idx >= vec->len ){ return vec->base; }
	.loc 2 79 35 is_stmt 0
	jmp	.L40	#
.L39:
# std/vec.h:80: 	return ( I8* )vec->base + idx * vec->szof;
	.loc 2 80 19 is_stmt 1
	mov	rax, QWORD PTR -8[rbp]	# tmp91, vec
	mov	rdx, QWORD PTR [rax]	# _2, vec_8(D)->base
# std/vec.h:80: 	return ( I8* )vec->base + idx * vec->szof;
	.loc 2 80 37
	mov	rax, QWORD PTR -8[rbp]	# tmp92, vec
	mov	eax, DWORD PTR 16[rax]	# _3, vec_8(D)->szof
# std/vec.h:80: 	return ( I8* )vec->base + idx * vec->szof;
	.loc 2 80 32
	imul	eax, DWORD PTR -12[rbp]	# _4, idx
	mov	eax, eax	# _5, _4
# std/vec.h:80: 	return ( I8* )vec->base + idx * vec->szof;
	.loc 2 80 26
	add	rax, rdx	# _6, _2
.L40:
# std/vec.h:81: }
	.loc 2 81 1
	pop	rbp	#
	.cfi_def_cfa 7, 8
	ret	
	.cfi_endproc
.LFE17:
	.size	VecGet, .-VecGet
	.globl	VecPeek
	.type	VecPeek, @function
VecPeek:
.LFB18:
	.loc 2 84 1
	.cfi_startproc
	endbr64	
	push	rbp	#
	.cfi_def_cfa_offset 16
	.cfi_offset 6, -16
	mov	rbp, rsp	#,
	.cfi_def_cfa_register 6
	mov	QWORD PTR -8[rbp], rdi	# vec, vec
# std/vec.h:85: 	if( vec->len == 0 ){ return vec->base; }
	.loc 2 85 9
	mov	rax, QWORD PTR -8[rbp]	# tmp91, vec
	mov	eax, DWORD PTR 8[rax]	# _1, vec_10(D)->D.4073.len
# std/vec.h:85: 	if( vec->len == 0 ){ return vec->base; }
	.loc 2 85 4
	test	eax, eax	# _1
	jne	.L42	#,
# std/vec.h:85: 	if( vec->len == 0 ){ return vec->base; }
	.loc 2 85 33 discriminator 1
	mov	rax, QWORD PTR -8[rbp]	# tmp92, vec
	mov	rax, QWORD PTR [rax]	# _8, vec_10(D)->base
# std/vec.h:85: 	if( vec->len == 0 ){ return vec->base; }
	.loc 2 85 33 is_stmt 0
	jmp	.L43	#
.L42:
# std/vec.h:86: 	return ( I8* )vec->base + ( vec->len - 1 ) * vec->szof;
	.loc 2 86 19 is_stmt 1
	mov	rax, QWORD PTR -8[rbp]	# tmp93, vec
	mov	rdx, QWORD PTR [rax]	# _2, vec_10(D)->base
# std/vec.h:86: 	return ( I8* )vec->base + ( vec->len - 1 ) * vec->szof;
	.loc 2 86 33
	mov	rax, QWORD PTR -8[rbp]	# tmp94, vec
	mov	eax, DWORD PTR 8[rax]	# _3, vec_10(D)->D.4073.len
# std/vec.h:86: 	return ( I8* )vec->base + ( vec->len - 1 ) * vec->szof;
	.loc 2 86 39
	lea	ecx, -1[rax]	# _4,
# std/vec.h:86: 	return ( I8* )vec->base + ( vec->len - 1 ) * vec->szof;
	.loc 2 86 50
	mov	rax, QWORD PTR -8[rbp]	# tmp95, vec
	mov	eax, DWORD PTR 16[rax]	# _5, vec_10(D)->szof
# std/vec.h:86: 	return ( I8* )vec->base + ( vec->len - 1 ) * vec->szof;
	.loc 2 86 45
	imul	eax, ecx	# _6, _4
	mov	eax, eax	# _7, _6
# std/vec.h:86: 	return ( I8* )vec->base + ( vec->len - 1 ) * vec->szof;
	.loc 2 86 26
	add	rax, rdx	# _8, _2
.L43:
# std/vec.h:87: }
	.loc 2 87 1
	pop	rbp	#
	.cfi_def_cfa 7, 8
	ret	
	.cfi_endproc
.LFE18:
	.size	VecPeek, .-VecPeek
	.globl	VecPeekN
	.type	VecPeekN, @function
VecPeekN:
.LFB19:
	.loc 2 90 1
	.cfi_startproc
	endbr64	
	push	rbp	#
	.cfi_def_cfa_offset 16
	.cfi_offset 6, -16
	mov	rbp, rsp	#,
	.cfi_def_cfa_register 6
	mov	QWORD PTR -8[rbp], rdi	# vec, vec
	mov	DWORD PTR -12[rbp], esi	# peek, peek
# std/vec.h:91: 	if( peek >= vec->len ){ return vec->base; }
	.loc 2 91 17
	mov	rax, QWORD PTR -8[rbp]	# tmp92, vec
	mov	eax, DWORD PTR 8[rax]	# _1, vec_11(D)->D.4073.len
# std/vec.h:91: 	if( peek >= vec->len ){ return vec->base; }
	.loc 2 91 4
	cmp	DWORD PTR -12[rbp], eax	# peek, _1
	jb	.L45	#,
# std/vec.h:91: 	if( peek >= vec->len ){ return vec->base; }
	.loc 2 91 36 discriminator 1
	mov	rax, QWORD PTR -8[rbp]	# tmp93, vec
	mov	rax, QWORD PTR [rax]	# _9, vec_11(D)->base
# std/vec.h:91: 	if( peek >= vec->len ){ return vec->base; }
	.loc 2 91 36 is_stmt 0
	jmp	.L46	#
.L45:
# std/vec.h:92: 	return ( I8* )vec->base + ( vec->len - 1 - peek ) * vec->szof;
	.loc 2 92 19 is_stmt 1
	mov	rax, QWORD PTR -8[rbp]	# tmp94, vec
	mov	rdx, QWORD PTR [rax]	# _2, vec_11(D)->base
# std/vec.h:92: 	return ( I8* )vec->base + ( vec->len - 1 - peek ) * vec->szof;
	.loc 2 92 33
	mov	rax, QWORD PTR -8[rbp]	# tmp95, vec
	mov	eax, DWORD PTR 8[rax]	# _3, vec_11(D)->D.4073.len
# std/vec.h:92: 	return ( I8* )vec->base + ( vec->len - 1 - peek ) * vec->szof;
	.loc 2 92 43
	sub	eax, DWORD PTR -12[rbp]	# _4, peek
	lea	ecx, -1[rax]	# _5,
# std/vec.h:92: 	return ( I8* )vec->base + ( vec->len - 1 - peek ) * vec->szof;
	.loc 2 92 57
	mov	rax, QWORD PTR -8[rbp]	# tmp96, vec
	mov	eax, DWORD PTR 16[rax]	# _6, vec_11(D)->szof
# std/vec.h:92: 	return ( I8* )vec->base + ( vec->len - 1 - peek ) * vec->szof;
	.loc 2 92 52
	imul	eax, ecx	# _7, _5
	mov	eax, eax	# _8, _7
# std/vec.h:92: 	return ( I8* )vec->base + ( vec->len - 1 - peek ) * vec->szof;
	.loc 2 92 26
	add	rax, rdx	# _9, _2
.L46:
# std/vec.h:93: }
	.loc 2 93 1
	pop	rbp	#
	.cfi_def_cfa 7, 8
	ret	
	.cfi_endproc
.LFE19:
	.size	VecPeekN, .-VecPeekN
	.type	StringHash, @function
StringHash:
.LFB20:
	.file 3 "std/string.h"
	.loc 3 9 1
	.cfi_startproc
	push	rbp	#
	.cfi_def_cfa_offset 16
	.cfi_offset 6, -16
	mov	rbp, rsp	#,
	.cfi_def_cfa_register 6
	mov	QWORD PTR -24[rbp], rdi	# cstr, cstr
	mov	DWORD PTR -28[rbp], esi	# len, len
# std/string.h:10: 	U32 hash = 2166136261U;
	.loc 3 10 6
	mov	DWORD PTR -12[rbp], -2128831035	# hash,
# std/string.h:11: 	U32 prime = 16777619U;
	.loc 3 11 6
	mov	DWORD PTR -4[rbp], 16777619	# prime,
.LBB2:
# std/string.h:12: 	for( U32 i = 0; i < len; i++ )
	.loc 3 12 11
	mov	DWORD PTR -8[rbp], 0	# i,
# std/string.h:12: 	for( U32 i = 0; i < len; i++ )
	.loc 3 12 2
	jmp	.L48	#
.L49:
# std/string.h:14: 		hash ^= cstr[ i ];
	.loc 3 14 15
	mov	edx, DWORD PTR -8[rbp]	# _1, i
	mov	rax, QWORD PTR -24[rbp]	# tmp88, cstr
	add	rax, rdx	# _2, _1
	movzx	eax, BYTE PTR [rax]	# _3, *_2
	movsx	eax, al	# _4, _3
# std/string.h:14: 		hash ^= cstr[ i ];
	.loc 3 14 8
	xor	DWORD PTR -12[rbp], eax	# hash, _4
# std/string.h:15: 		hash *= prime;
	.loc 3 15 8
	mov	eax, DWORD PTR -12[rbp]	# tmp90, hash
	imul	eax, DWORD PTR -4[rbp]	# tmp89, prime
	mov	DWORD PTR -12[rbp], eax	# hash, tmp89
# std/string.h:12: 	for( U32 i = 0; i < len; i++ )
	.loc 3 12 28 discriminator 3
	add	DWORD PTR -8[rbp], 1	# i,
.L48:
# std/string.h:12: 	for( U32 i = 0; i < len; i++ )
	.loc 3 12 20 discriminator 1
	mov	eax, DWORD PTR -8[rbp]	# tmp91, i
	cmp	eax, DWORD PTR -28[rbp]	# tmp91, len
	jb	.L49	#,
.LBE2:
# std/string.h:17: 	return hash;
	.loc 3 17 9
	mov	eax, DWORD PTR -12[rbp]	# _11, hash
# std/string.h:18: }
	.loc 3 18 1
	pop	rbp	#
	.cfi_def_cfa 7, 8
	ret	
	.cfi_endproc
.LFE20:
	.size	StringHash, .-StringHash
	.type	StringAlloc, @function
StringAlloc:
.LFB21:
	.loc 3 21 1
	.cfi_startproc
	push	rbp	#
	.cfi_def_cfa_offset 16
	.cfi_offset 6, -16
	mov	rbp, rsp	#,
	.cfi_def_cfa_register 6
	sub	rsp, 48	#,
	mov	QWORD PTR -24[rbp], rdi	# strings, strings
	mov	QWORD PTR -32[rbp], rsi	# src, src
	mov	DWORD PTR -36[rbp], edx	# len, len
# std/string.h:22: 	U32 offset = ArenaPush( strings, len, 1 );
	.loc 3 22 15
	mov	ecx, DWORD PTR -36[rbp]	# tmp85, len
	mov	rax, QWORD PTR -24[rbp]	# tmp86, strings
	mov	edx, 1	#,
	mov	esi, ecx	#, tmp85
	mov	rdi, rax	#, tmp86
	call	ArenaPush	#
	mov	DWORD PTR -12[rbp], eax	# offset, tmp87
# std/string.h:23: 	I8 *dest = ArenaOff( strings, offset );
	.loc 3 23 13
	mov	edx, DWORD PTR -12[rbp]	# tmp88, offset
	mov	rax, QWORD PTR -24[rbp]	# tmp89, strings
	mov	esi, edx	#, tmp88
	mov	rdi, rax	#, tmp89
	call	ArenaOff	#
	mov	QWORD PTR -8[rbp], rax	# dest, tmp90
# std/string.h:24: 	memcpy( dest, src, len );
	.loc 3 24 2
	mov	edx, DWORD PTR -36[rbp]	# _1, len
	mov	rcx, QWORD PTR -32[rbp]	# tmp91, src
	mov	rax, QWORD PTR -8[rbp]	# tmp92, dest
	mov	rsi, rcx	#, tmp91
	mov	rdi, rax	#, tmp92
	call	memcpy@PLT	#
# std/string.h:25: 	return offset;
	.loc 3 25 9
	mov	eax, DWORD PTR -12[rbp]	# _11, offset
# std/string.h:26: }
	.loc 3 26 1
	leave	
	.cfi_def_cfa 7, 8
	ret	
	.cfi_endproc
.LFE21:
	.size	StringAlloc, .-StringAlloc
	.globl	ValueSet
	.type	ValueSet, @function
ValueSet:
.LFB22:
	.file 4 "std/value.h"
	.loc 4 23 1
	.cfi_startproc
	endbr64	
	push	rbp	#
	.cfi_def_cfa_offset 16
	.cfi_offset 6, -16
	mov	rbp, rsp	#,
	.cfi_def_cfa_register 6
	mov	QWORD PTR -8[rbp], rdi	# value, value
	mov	DWORD PTR -12[rbp], esi	# type, type
	mov	QWORD PTR -24[rbp], rdx	# data, data
# std/value.h:25: 	goto *types[ type ];
	.loc 4 25 13
	mov	eax, DWORD PTR -12[rbp]	# tmp85, type
	lea	rdx, 0[0+rax*8]	# tmp86,
	lea	rax, types.51[rip]	# tmp87,
	mov	rax, QWORD PTR [rdx+rax]	# _1, types[type_6(D)]
# std/value.h:25: 	goto *types[ type ];
	.loc 4 25 2
	nop	
	jmp	rax	# _1
.L55:
	endbr64	
# std/value.h:26: 	I64: value->i64 = *( I64* )data; return;
	.loc 4 26 20
	mov	rax, QWORD PTR -24[rbp]	# tmp88, data
	mov	rdx, QWORD PTR [rax]	# _2, MEM[(I64 *)data_9(D)]
# std/value.h:26: 	I64: value->i64 = *( I64* )data; return;
	.loc 4 26 18
	mov	rax, QWORD PTR -8[rbp]	# tmp89, value
	mov	QWORD PTR 8[rax], rdx	# value_8(D)->D.4160.i64, _2
# std/value.h:26: 	I64: value->i64 = *( I64* )data; return;
	.loc 4 26 35
	jmp	.L53	#
.L57:
	endbr64	
# std/value.h:27: 	F64: value->f64 = *( F64* )data; return;
	.loc 4 27 20
	mov	rax, QWORD PTR -24[rbp]	# tmp90, data
	movsd	xmm0, QWORD PTR [rax]	# _3, MEM[(F64 *)data_9(D)]
# std/value.h:27: 	F64: value->f64 = *( F64* )data; return;
	.loc 4 27 18
	mov	rax, QWORD PTR -8[rbp]	# tmp91, value
	movsd	QWORD PTR 8[rax], xmm0	# value_8(D)->D.4160.f64, _3
# std/value.h:27: 	F64: value->f64 = *( F64* )data; return;
	.loc 4 27 35
	jmp	.L53	#
.L58:
	endbr64	
# std/value.h:28: 	STR: value->str = data;
	.loc 4 28 18
	mov	rax, QWORD PTR -8[rbp]	# tmp92, value
	mov	rdx, QWORD PTR -24[rbp]	# tmp93, data
	mov	QWORD PTR 8[rax], rdx	# value_8(D)->D.4160.str, tmp93
.L53:
# std/value.h:29: }
	.loc 4 29 1
	pop	rbp	#
	.cfi_def_cfa 7, 8
	ret	
	.cfi_endproc
.LFE22:
	.size	ValueSet, .-ValueSet
	.type	GetInterns, @function
GetInterns:
.LFB23:
	.file 5 "std/table.h"
	.loc 5 12 1
	.cfi_startproc
	push	rbp	#
	.cfi_def_cfa_offset 16
	.cfi_offset 6, -16
	mov	rbp, rsp	#,
	.cfi_def_cfa_register 6
# std/table.h:14: 	return &interns;
	.loc 5 14 9
	lea	rax, interns.0[rip]	# _1,
# std/table.h:15: }
	.loc 5 15 1
	pop	rbp	#
	.cfi_def_cfa 7, 8
	ret	
	.cfi_endproc
.LFE23:
	.size	GetInterns, .-GetInterns
	.globl	TableAlloc
	.type	TableAlloc, @function
TableAlloc:
.LFB24:
	.loc 5 18 1
	.cfi_startproc
	endbr64	
	push	rbp	#
	.cfi_def_cfa_offset 16
	.cfi_offset 6, -16
	mov	rbp, rsp	#,
	.cfi_def_cfa_register 6
	sub	rsp, 32	#,
	mov	QWORD PTR -8[rbp], rdi	# table, table
	mov	QWORD PTR -16[rbp], rsi	# strings, strings
	mov	DWORD PTR -20[rbp], edx	# max, max
# std/table.h:19: 	table->strings = strings;
	.loc 5 19 17
	mov	rax, QWORD PTR -8[rbp]	# tmp84, table
	mov	rdx, QWORD PTR -16[rbp]	# tmp85, strings
	mov	QWORD PTR 8[rax], rdx	# table_4(D)->strings, tmp85
# std/table.h:20: 	table->base = calloc( max, sizeof( String ) );
	.loc 5 20 16
	mov	eax, DWORD PTR -20[rbp]	# _1, max
	mov	esi, 12	#,
	mov	rdi, rax	#, _1
	call	calloc@PLT	#
	mov	rdx, rax	# _2, tmp86
# std/table.h:20: 	table->base = calloc( max, sizeof( String ) );
	.loc 5 20 14 discriminator 1
	mov	rax, QWORD PTR -8[rbp]	# tmp87, table
	mov	QWORD PTR [rax], rdx	# table_4(D)->base, _2
# std/table.h:21: 	table->len = 0;
	.loc 5 21 13
	mov	rax, QWORD PTR -8[rbp]	# tmp88, table
	mov	DWORD PTR 16[rax], 0	# table_4(D)->len,
# std/table.h:22: 	table->max = max;
	.loc 5 22 13
	mov	rax, QWORD PTR -8[rbp]	# tmp89, table
	mov	edx, DWORD PTR -20[rbp]	# tmp90, max
	mov	DWORD PTR 20[rax], edx	# table_4(D)->max, tmp90
# std/table.h:23: }
	.loc 5 23 1
	nop	
	leave	
	.cfi_def_cfa 7, 8
	ret	
	.cfi_endproc
.LFE24:
	.size	TableAlloc, .-TableAlloc
	.globl	TableFind
	.type	TableFind, @function
TableFind:
.LFB25:
	.loc 5 26 1
	.cfi_startproc
	endbr64	
	push	rbp	#
	.cfi_def_cfa_offset 16
	.cfi_offset 6, -16
	mov	rbp, rsp	#,
	.cfi_def_cfa_register 6
	sub	rsp, 64	#,
	mov	QWORD PTR -40[rbp], rdi	# table, table
	mov	QWORD PTR -48[rbp], rsi	# str_a, str_a
	mov	DWORD PTR -52[rbp], edx	# len, len
	mov	DWORD PTR -56[rbp], ecx	# hash, hash
# std/table.h:27: 	U32 idx = hash & ( table->max - 1 );
	.loc 5 27 26
	mov	rax, QWORD PTR -40[rbp]	# tmp99, table
	mov	eax, DWORD PTR 20[rax]	# _1, table_19(D)->max
# std/table.h:27: 	U32 idx = hash & ( table->max - 1 );
	.loc 5 27 32
	sub	eax, 1	# _2,
# std/table.h:27: 	U32 idx = hash & ( table->max - 1 );
	.loc 5 27 6
	and	eax, DWORD PTR -56[rbp]	# tmp101, hash
	mov	DWORD PTR -24[rbp], eax	# idx, tmp101
.L67:
.LBB3:
# std/table.h:30: 		String *str = &table->base[ idx ];
	.loc 5 30 23
	mov	rax, QWORD PTR -40[rbp]	# tmp102, table
	mov	rcx, QWORD PTR [rax]	# _3, table_19(D)->base
# std/table.h:30: 		String *str = &table->base[ idx ];
	.loc 5 30 29
	mov	edx, DWORD PTR -24[rbp]	# _4, idx
	mov	rax, rdx	# tmp103, _4
	add	rax, rax	# tmp103
	add	rax, rdx	# tmp103, _4
	sal	rax, 2	# tmp104,
# std/table.h:30: 		String *str = &table->base[ idx ];
	.loc 5 30 11
	add	rax, rcx	# tmp105, _3
	mov	QWORD PTR -16[rbp], rax	# str, tmp105
# std/table.h:31: 		if( !str->hash ){ return str; }
	.loc 5 31 11
	mov	rax, QWORD PTR -16[rbp]	# tmp106, str
	mov	eax, DWORD PTR 8[rax]	# _6, str_22->hash
# std/table.h:31: 		if( !str->hash ){ return str; }
	.loc 5 31 5
	test	eax, eax	# _6
	jne	.L63	#,
# std/table.h:31: 		if( !str->hash ){ return str; }
	.loc 5 31 28 discriminator 1
	mov	rax, QWORD PTR -16[rbp]	# _17, str
# std/table.h:31: 		if( !str->hash ){ return str; }
	.loc 5 31 28 is_stmt 0
	jmp	.L64	#
.L63:
# std/table.h:32: 		if( str->len != len ){ continue; }
	.loc 5 32 10 is_stmt 1
	mov	rax, QWORD PTR -16[rbp]	# tmp107, str
	mov	eax, DWORD PTR 4[rax]	# _7, str_22->len
# std/table.h:32: 		if( str->len != len ){ continue; }
	.loc 5 32 5
	cmp	DWORD PTR -52[rbp], eax	# len, _7
	jne	.L68	#,
# std/table.h:33: 		I8 *str_b = ( I8* )table->strings->base + str->offset;
	.loc 5 33 27
	mov	rax, QWORD PTR -40[rbp]	# tmp108, table
	mov	rax, QWORD PTR 8[rax]	# _8, table_19(D)->strings
# std/table.h:33: 		I8 *str_b = ( I8* )table->strings->base + str->offset;
	.loc 5 33 36
	mov	rdx, QWORD PTR [rax]	# _9, _8->base
# std/table.h:33: 		I8 *str_b = ( I8* )table->strings->base + str->offset;
	.loc 5 33 48
	mov	rax, QWORD PTR -16[rbp]	# tmp109, str
	mov	eax, DWORD PTR [rax]	# _10, str_22->offset
	mov	eax, eax	# _11, _10
# std/table.h:33: 		I8 *str_b = ( I8* )table->strings->base + str->offset;
	.loc 5 33 7
	add	rax, rdx	# tmp110, _9
	mov	QWORD PTR -8[rbp], rax	# str_b, tmp110
# std/table.h:34: 		I32 cmp = memcmp( str_a, str_b, len );
	.loc 5 34 13
	mov	edx, DWORD PTR -52[rbp]	# _12, len
	mov	rcx, QWORD PTR -8[rbp]	# tmp111, str_b
	mov	rax, QWORD PTR -48[rbp]	# tmp112, str_a
	mov	rsi, rcx	#, tmp111
	mov	rdi, rax	#, tmp112
	call	memcmp@PLT	#
	mov	DWORD PTR -20[rbp], eax	# cmp, tmp113
# std/table.h:35: 		if( cmp == 0 ){ return str; }
	.loc 5 35 5
	cmp	DWORD PTR -20[rbp], 0	# cmp,
	jne	.L66	#,
# std/table.h:35: 		if( cmp == 0 ){ return str; }
	.loc 5 35 26 discriminator 1
	mov	rax, QWORD PTR -16[rbp]	# _17, str
# std/table.h:35: 		if( cmp == 0 ){ return str; }
	.loc 5 35 26 is_stmt 0
	jmp	.L64	#
.L68:
# std/table.h:32: 		if( str->len != len ){ continue; }
	.loc 5 32 26 is_stmt 1
	nop	
.L66:
.LBE3:
# std/table.h:28: 	for( ;; idx = ( idx + 1 ) & ( table->max - 1 ) )
	.loc 5 28 22
	mov	eax, DWORD PTR -24[rbp]	# tmp114, idx
	lea	edx, 1[rax]	# _13,
# std/table.h:28: 	for( ;; idx = ( idx + 1 ) & ( table->max - 1 ) )
	.loc 5 28 37
	mov	rax, QWORD PTR -40[rbp]	# tmp115, table
	mov	eax, DWORD PTR 20[rax]	# _14, table_19(D)->max
# std/table.h:28: 	for( ;; idx = ( idx + 1 ) & ( table->max - 1 ) )
	.loc 5 28 43
	sub	eax, 1	# _15,
# std/table.h:28: 	for( ;; idx = ( idx + 1 ) & ( table->max - 1 ) )
	.loc 5 28 14
	and	eax, edx	# tmp116, _13
	mov	DWORD PTR -24[rbp], eax	# idx, tmp116
# std/table.h:29: 	{
	.loc 5 29 2
	jmp	.L67	#
.L64:
# std/table.h:37: }
	.loc 5 37 1
	leave	
	.cfi_def_cfa 7, 8
	ret	
	.cfi_endproc
.LFE25:
	.size	TableFind, .-TableFind
	.globl	TableReput
	.type	TableReput, @function
TableReput:
.LFB26:
	.loc 5 40 1
	.cfi_startproc
	endbr64	
	push	rbp	#
	.cfi_def_cfa_offset 16
	.cfi_offset 6, -16
	mov	rbp, rsp	#,
	.cfi_def_cfa_register 6
	sub	rsp, 32	#,
	mov	QWORD PTR -24[rbp], rdi	# table, table
	mov	QWORD PTR -32[rbp], rsi	# old_str, old_str
# std/table.h:41: 	I8 *old_cstr = ArenaOff( table->strings, old_str->offset );
	.loc 5 41 17
	mov	rax, QWORD PTR -32[rbp]	# tmp91, old_str
	mov	edx, DWORD PTR [rax]	# _1, old_str_11(D)->offset
	mov	rax, QWORD PTR -24[rbp]	# tmp92, table
	mov	rax, QWORD PTR 8[rax]	# _2, table_12(D)->strings
	mov	esi, edx	#, _1
	mov	rdi, rax	#, _2
	call	ArenaOff	#
	mov	QWORD PTR -16[rbp], rax	# old_cstr, tmp93
# std/table.h:42: 	String *new_str = TableFind( table, old_cstr, old_str->len, old_str->hash );
	.loc 5 42 20
	mov	rax, QWORD PTR -32[rbp]	# tmp94, old_str
	mov	ecx, DWORD PTR 8[rax]	# _3, old_str_11(D)->hash
	mov	rax, QWORD PTR -32[rbp]	# tmp95, old_str
	mov	edx, DWORD PTR 4[rax]	# _4, old_str_11(D)->len
	mov	rsi, QWORD PTR -16[rbp]	# tmp96, old_cstr
	mov	rax, QWORD PTR -24[rbp]	# tmp97, table
	mov	rdi, rax	#, tmp97
	call	TableFind	#
	mov	QWORD PTR -8[rbp], rax	# new_str, tmp98
# std/table.h:43: 	table->len++;
	.loc 5 43 7
	mov	rax, QWORD PTR -24[rbp]	# tmp99, table
	mov	eax, DWORD PTR 16[rax]	# _5, table_12(D)->len
# std/table.h:43: 	table->len++;
	.loc 5 43 12
	lea	edx, 1[rax]	# _6,
	mov	rax, QWORD PTR -24[rbp]	# tmp100, table
	mov	DWORD PTR 16[rax], edx	# table_12(D)->len, _6
# std/table.h:44: 	new_str->offset = old_str->offset;
	.loc 5 44 27
	mov	rax, QWORD PTR -32[rbp]	# tmp101, old_str
	mov	edx, DWORD PTR [rax]	# _7, old_str_11(D)->offset
# std/table.h:44: 	new_str->offset = old_str->offset;
	.loc 5 44 18
	mov	rax, QWORD PTR -8[rbp]	# tmp102, new_str
	mov	DWORD PTR [rax], edx	# new_str_16->offset, _7
# std/table.h:45: 	new_str->len = old_str->len;
	.loc 5 45 24
	mov	rax, QWORD PTR -32[rbp]	# tmp103, old_str
	mov	edx, DWORD PTR 4[rax]	# _8, old_str_11(D)->len
# std/table.h:45: 	new_str->len = old_str->len;
	.loc 5 45 15
	mov	rax, QWORD PTR -8[rbp]	# tmp104, new_str
	mov	DWORD PTR 4[rax], edx	# new_str_16->len, _8
# std/table.h:46: 	new_str->hash = old_str->hash;
	.loc 5 46 25
	mov	rax, QWORD PTR -32[rbp]	# tmp105, old_str
	mov	edx, DWORD PTR 8[rax]	# _9, old_str_11(D)->hash
# std/table.h:46: 	new_str->hash = old_str->hash;
	.loc 5 46 16
	mov	rax, QWORD PTR -8[rbp]	# tmp106, new_str
	mov	DWORD PTR 8[rax], edx	# new_str_16->hash, _9
# std/table.h:47: }
	.loc 5 47 1
	nop	
	leave	
	.cfi_def_cfa 7, 8
	ret	
	.cfi_endproc
.LFE26:
	.size	TableReput, .-TableReput
	.globl	TableGrow
	.type	TableGrow, @function
TableGrow:
.LFB27:
	.loc 5 50 1
	.cfi_startproc
	endbr64	
	push	rbp	#
	.cfi_def_cfa_offset 16
	.cfi_offset 6, -16
	mov	rbp, rsp	#,
	.cfi_def_cfa_register 6
	sub	rsp, 48	#,
	mov	QWORD PTR -40[rbp], rdi	# table, table
# std/table.h:51: 	String *old_base = table->base;
	.loc 5 51 10
	mov	rax, QWORD PTR -40[rbp]	# tmp88, table
	mov	rax, QWORD PTR [rax]	# tmp89, table_11(D)->base
	mov	QWORD PTR -16[rbp], rax	# old_base, tmp89
# std/table.h:52: 	U32 old_len = table->len;
	.loc 5 52 6
	mov	rax, QWORD PTR -40[rbp]	# tmp90, table
	mov	eax, DWORD PTR 16[rax]	# tmp91, table_11(D)->len
	mov	DWORD PTR -20[rbp], eax	# old_len, tmp91
# std/table.h:53: 	TableAlloc( table, table->strings, table->max << 1 );
	.loc 5 53 42
	mov	rax, QWORD PTR -40[rbp]	# tmp92, table
	mov	eax, DWORD PTR 20[rax]	# _1, table_11(D)->max
# std/table.h:53: 	TableAlloc( table, table->strings, table->max << 1 );
	.loc 5 53 2
	lea	edx, [rax+rax]	# _2,
	mov	rax, QWORD PTR -40[rbp]	# tmp93, table
	mov	rcx, QWORD PTR 8[rax]	# _3, table_11(D)->strings
	mov	rax, QWORD PTR -40[rbp]	# tmp94, table
	mov	rsi, rcx	#, _3
	mov	rdi, rax	#, tmp94
	call	TableAlloc	#
.LBB4:
# std/table.h:54: 	for( U32 i = 0; i < old_len; i++ )
	.loc 5 54 11
	mov	DWORD PTR -24[rbp], 0	# i,
# std/table.h:54: 	for( U32 i = 0; i < old_len; i++ )
	.loc 5 54 2
	jmp	.L71	#
.L74:
.LBB5:
# std/table.h:56: 		String *old_str = &old_base[ i ];
	.loc 5 56 30
	mov	edx, DWORD PTR -24[rbp]	# _4, i
	mov	rax, rdx	# tmp95, _4
	add	rax, rax	# tmp95
	add	rax, rdx	# tmp95, _4
	sal	rax, 2	# tmp96,
	mov	rdx, rax	# _5, tmp95
# std/table.h:56: 		String *old_str = &old_base[ i ];
	.loc 5 56 11
	mov	rax, QWORD PTR -16[rbp]	# tmp100, old_base
	add	rax, rdx	# tmp99, _5
	mov	QWORD PTR -8[rbp], rax	# old_str, tmp99
# std/table.h:57: 		if( !old_str->hash ){ continue; } /* skip empty / tombstones */
	.loc 5 57 15
	mov	rax, QWORD PTR -8[rbp]	# tmp101, old_str
	mov	eax, DWORD PTR 8[rax]	# _6, old_str_17->hash
# std/table.h:57: 		if( !old_str->hash ){ continue; } /* skip empty / tombstones */
	.loc 5 57 5
	test	eax, eax	# _6
	je	.L75	#,
# std/table.h:58: 		TableReput( table, old_str ); /* reinsert at new hash index */
	.loc 5 58 3
	mov	rdx, QWORD PTR -8[rbp]	# tmp102, old_str
	mov	rax, QWORD PTR -40[rbp]	# tmp103, table
	mov	rsi, rdx	#, tmp102
	mov	rdi, rax	#, tmp103
	call	TableReput	#
	jmp	.L73	#
.L75:
# std/table.h:57: 		if( !old_str->hash ){ continue; } /* skip empty / tombstones */
	.loc 5 57 25
	nop	
.L73:
.LBE5:
# std/table.h:54: 	for( U32 i = 0; i < old_len; i++ )
	.loc 5 54 32 discriminator 2
	add	DWORD PTR -24[rbp], 1	# i,
.L71:
# std/table.h:54: 	for( U32 i = 0; i < old_len; i++ )
	.loc 5 54 20 discriminator 1
	mov	eax, DWORD PTR -24[rbp]	# tmp104, i
	cmp	eax, DWORD PTR -20[rbp]	# tmp104, old_len
	jb	.L74	#,
.LBE4:
# std/table.h:60: 	free( old_base );
	.loc 5 60 2
	mov	rax, QWORD PTR -16[rbp]	# tmp105, old_base
	mov	rdi, rax	#, tmp105
	call	free@PLT	#
# std/table.h:61: }
	.loc 5 61 1
	nop	
	leave	
	.cfi_def_cfa 7, 8
	ret	
	.cfi_endproc
.LFE27:
	.size	TableGrow, .-TableGrow
	.globl	TablePut
	.type	TablePut, @function
TablePut:
.LFB28:
	.loc 5 64 1
	.cfi_startproc
	endbr64	
	push	rbp	#
	.cfi_def_cfa_offset 16
	.cfi_offset 6, -16
	mov	rbp, rsp	#,
	.cfi_def_cfa_register 6
	sub	rsp, 48	#,
	mov	QWORD PTR -24[rbp], rdi	# table, table
	mov	QWORD PTR -32[rbp], rsi	# src, src
	mov	DWORD PTR -36[rbp], edx	# len, len
# std/table.h:65: 	if( table->len > table->max * TABLE_LOAD ){ TableGrow( table ); }
	.loc 5 65 11
	mov	rax, QWORD PTR -24[rbp]	# tmp94, table
	mov	eax, DWORD PTR 16[rax]	# _1, table_15(D)->len
# std/table.h:65: 	if( table->len > table->max * TABLE_LOAD ){ TableGrow( table ); }
	.loc 5 65 17
	mov	eax, eax	# tmp95, _1
	test	rax, rax	# tmp95
	js	.L77	#,
	pxor	xmm0, xmm0	# _2
	cvtsi2sd	xmm0, rax	# _2, tmp95
	jmp	.L78	#
.L77:
	mov	rdx, rax	# tmp97, tmp95
	shr	rdx	# tmp97
	and	eax, 1	# tmp98,
	or	rdx, rax	# tmp97, tmp98
	pxor	xmm0, xmm0	# tmp96
	cvtsi2sd	xmm0, rdx	# tmp96, tmp97
	addsd	xmm0, xmm0	# _2, tmp96
.L78:
# std/table.h:65: 	if( table->len > table->max * TABLE_LOAD ){ TableGrow( table ); }
	.loc 5 65 24
	mov	rax, QWORD PTR -24[rbp]	# tmp99, table
	mov	eax, DWORD PTR 20[rax]	# _3, table_15(D)->max
# std/table.h:65: 	if( table->len > table->max * TABLE_LOAD ){ TableGrow( table ); }
	.loc 5 65 30
	mov	eax, eax	# tmp100, _3
	test	rax, rax	# tmp100
	js	.L79	#,
	pxor	xmm1, xmm1	# _4
	cvtsi2sd	xmm1, rax	# _4, tmp100
	jmp	.L80	#
.L79:
	mov	rdx, rax	# tmp102, tmp100
	shr	rdx	# tmp102
	and	eax, 1	# tmp103,
	or	rdx, rax	# tmp102, tmp103
	pxor	xmm1, xmm1	# tmp101
	cvtsi2sd	xmm1, rdx	# tmp101, tmp102
	addsd	xmm1, xmm1	# _4, tmp101
.L80:
	movsd	xmm2, QWORD PTR .LC0[rip]	# tmp104,
	mulsd	xmm1, xmm2	# _5, tmp104
# std/table.h:65: 	if( table->len > table->max * TABLE_LOAD ){ TableGrow( table ); }
	.loc 5 65 4
	comisd	xmm0, xmm1	# _2, _5
	jbe	.L81	#,
# std/table.h:65: 	if( table->len > table->max * TABLE_LOAD ){ TableGrow( table ); }
	.loc 5 65 46 discriminator 1
	mov	rax, QWORD PTR -24[rbp]	# tmp105, table
	mov	rdi, rax	#, tmp105
	call	TableGrow	#
.L81:
# std/table.h:66: 	U32 hash = StringHash( src, len );
	.loc 5 66 13
	mov	edx, DWORD PTR -36[rbp]	# tmp106, len
	mov	rax, QWORD PTR -32[rbp]	# tmp107, src
	mov	esi, edx	#, tmp106
	mov	rdi, rax	#, tmp107
	call	StringHash	#
	mov	DWORD PTR -12[rbp], eax	# hash, tmp108
# std/table.h:67: 	String *str = TableFind( table, src, len, hash );
	.loc 5 67 16
	mov	ecx, DWORD PTR -12[rbp]	# tmp109, hash
	mov	edx, DWORD PTR -36[rbp]	# tmp110, len
	mov	rsi, QWORD PTR -32[rbp]	# tmp111, src
	mov	rax, QWORD PTR -24[rbp]	# tmp112, table
	mov	rdi, rax	#, tmp112
	call	TableFind	#
	mov	QWORD PTR -8[rbp], rax	# str, tmp113
# std/table.h:68: 	if( str->hash ){ return str; }
	.loc 5 68 9
	mov	rax, QWORD PTR -8[rbp]	# tmp114, str
	mov	eax, DWORD PTR 8[rax]	# _6, str_22->hash
# std/table.h:68: 	if( str->hash ){ return str; }
	.loc 5 68 4
	test	eax, eax	# _6
	je	.L83	#,
# std/table.h:68: 	if( str->hash ){ return str; }
	.loc 5 68 26 discriminator 1
	mov	rax, QWORD PTR -8[rbp]	# _11, str
# std/table.h:68: 	if( str->hash ){ return str; }
	.loc 5 68 26 is_stmt 0
	jmp	.L84	#
.L83:
# std/table.h:69: 	table->len++;
	.loc 5 69 7 is_stmt 1
	mov	rax, QWORD PTR -24[rbp]	# tmp115, table
	mov	eax, DWORD PTR 16[rax]	# _7, table_15(D)->len
# std/table.h:69: 	table->len++;
	.loc 5 69 12
	lea	edx, 1[rax]	# _8,
	mov	rax, QWORD PTR -24[rbp]	# tmp116, table
	mov	DWORD PTR 16[rax], edx	# table_15(D)->len, _8
# std/table.h:71: 	str->offset = StringAlloc( table->strings, src, len );
	.loc 5 71 16
	mov	rax, QWORD PTR -24[rbp]	# tmp117, table
	mov	rax, QWORD PTR 8[rax]	# _9, table_15(D)->strings
	mov	edx, DWORD PTR -36[rbp]	# tmp118, len
	mov	rcx, QWORD PTR -32[rbp]	# tmp119, src
	mov	rsi, rcx	#, tmp119
	mov	rdi, rax	#, _9
	call	StringAlloc	#
# std/table.h:71: 	str->offset = StringAlloc( table->strings, src, len );
	.loc 5 71 14 discriminator 1
	mov	rdx, QWORD PTR -8[rbp]	# tmp120, str
	mov	DWORD PTR [rdx], eax	# str_22->offset, _10
# std/table.h:72: 	str->len = len;
	.loc 5 72 11
	mov	rax, QWORD PTR -8[rbp]	# tmp121, str
	mov	edx, DWORD PTR -36[rbp]	# tmp122, len
	mov	DWORD PTR 4[rax], edx	# str_22->len, tmp122
# std/table.h:73: 	str->hash = hash;
	.loc 5 73 12
	mov	rax, QWORD PTR -8[rbp]	# tmp123, str
	mov	edx, DWORD PTR -12[rbp]	# tmp124, hash
	mov	DWORD PTR 8[rax], edx	# str_22->hash, tmp124
# std/table.h:74: 	return str;
	.loc 5 74 9
	mov	rax, QWORD PTR -8[rbp]	# _11, str
.L84:
# std/table.h:75: }
	.loc 5 75 1
	leave	
	.cfi_def_cfa 7, 8
	ret	
	.cfi_endproc
.LFE28:
	.size	TablePut, .-TablePut
	.globl	MapAlloc
	.type	MapAlloc, @function
MapAlloc:
.LFB29:
	.file 6 "std/map.h"
	.loc 6 19 1
	.cfi_startproc
	endbr64	
	push	rbp	#
	.cfi_def_cfa_offset 16
	.cfi_offset 6, -16
	mov	rbp, rsp	#,
	.cfi_def_cfa_register 6
	sub	rsp, 16	#,
	mov	QWORD PTR -8[rbp], rdi	# map, map
	mov	DWORD PTR -12[rbp], esi	# max, max
# std/map.h:20: 	map->base = calloc( max, sizeof( Entry ) );
	.loc 6 20 14
	mov	eax, DWORD PTR -12[rbp]	# _1, max
	mov	esi, 24	#,
	mov	rdi, rax	#, _1
	call	calloc@PLT	#
	mov	rdx, rax	# _2, tmp84
# std/map.h:20: 	map->base = calloc( max, sizeof( Entry ) );
	.loc 6 20 12 discriminator 1
	mov	rax, QWORD PTR -8[rbp]	# tmp85, map
	mov	QWORD PTR [rax], rdx	# map_6(D)->base, _2
# std/map.h:21: 	map->len = 0;
	.loc 6 21 11
	mov	rax, QWORD PTR -8[rbp]	# tmp86, map
	mov	DWORD PTR 8[rax], 0	# map_6(D)->len,
# std/map.h:22: 	map->max = max;
	.loc 6 22 11
	mov	rax, QWORD PTR -8[rbp]	# tmp87, map
	mov	edx, DWORD PTR -12[rbp]	# tmp88, max
	mov	DWORD PTR 12[rax], edx	# map_6(D)->max, tmp88
# std/map.h:23: }
	.loc 6 23 1
	nop	
	leave	
	.cfi_def_cfa 7, 8
	ret	
	.cfi_endproc
.LFE29:
	.size	MapAlloc, .-MapAlloc
	.globl	MapGrow
	.type	MapGrow, @function
MapGrow:
.LFB30:
	.loc 6 26 1
	.cfi_startproc
	endbr64	
	push	rbp	#
	.cfi_def_cfa_offset 16
	.cfi_offset 6, -16
	mov	rbp, rsp	#,
	.cfi_def_cfa_register 6
	sub	rsp, 48	#,
	mov	QWORD PTR -40[rbp], rdi	# map, map
# std/map.h:27: 	Entry *entries = map->base;
	.loc 6 27 9
	mov	rax, QWORD PTR -40[rbp]	# tmp88, map
	mov	rax, QWORD PTR [rax]	# tmp89, map_11(D)->base
	mov	QWORD PTR -16[rbp], rax	# entries, tmp89
# std/map.h:28: 	U32 old_max = map->max;
	.loc 6 28 6
	mov	rax, QWORD PTR -40[rbp]	# tmp90, map
	mov	eax, DWORD PTR 12[rax]	# tmp91, map_11(D)->max
	mov	DWORD PTR -20[rbp], eax	# old_max, tmp91
# std/map.h:29: 	MapAlloc( map, map->max << 1 );
	.loc 6 29 20
	mov	rax, QWORD PTR -40[rbp]	# tmp92, map
	mov	eax, DWORD PTR 12[rax]	# _1, map_11(D)->max
# std/map.h:29: 	MapAlloc( map, map->max << 1 );
	.loc 6 29 2
	lea	edx, [rax+rax]	# _2,
	mov	rax, QWORD PTR -40[rbp]	# tmp93, map
	mov	esi, edx	#, _2
	mov	rdi, rax	#, tmp93
	call	MapAlloc	#
.LBB6:
# std/map.h:30: 	for( U32 i = 0; i < old_max; i++ )
	.loc 6 30 11
	mov	DWORD PTR -24[rbp], 0	# i,
# std/map.h:30: 	for( U32 i = 0; i < old_max; i++ )
	.loc 6 30 2
	jmp	.L88	#
.L91:
.LBB7:
# std/map.h:32: 		Entry *entry = &entries[ i ];
	.loc 6 32 26
	mov	edx, DWORD PTR -24[rbp]	# _3, i
	mov	rax, rdx	# tmp94, _3
	add	rax, rax	# tmp94
	add	rax, rdx	# tmp94, _3
	sal	rax, 3	# tmp95,
	mov	rdx, rax	# _4, tmp94
# std/map.h:32: 		Entry *entry = &entries[ i ];
	.loc 6 32 10
	mov	rax, QWORD PTR -16[rbp]	# tmp99, entries
	add	rax, rdx	# tmp98, _4
	mov	QWORD PTR -8[rbp], rax	# entry, tmp98
# std/map.h:33: 		if( !entry->key ){ continue; }
	.loc 6 33 13
	mov	rax, QWORD PTR -8[rbp]	# tmp100, entry
	mov	rax, QWORD PTR [rax]	# _5, entry_17->D.4226.key
# std/map.h:33: 		if( !entry->key ){ continue; }
	.loc 6 33 5
	test	rax, rax	# _5
	je	.L92	#,
# std/map.h:34: 		MapPut( map, entry->key, entry->value );
	.loc 6 34 3
	mov	rax, QWORD PTR -8[rbp]	# tmp101, entry
	mov	rsi, QWORD PTR [rax]	# _6, entry_17->D.4226.key
	mov	rax, QWORD PTR -8[rbp]	# tmp102, entry
	mov	edx, DWORD PTR 8[rax]	# tmp103, entry_17->value
	mov	rcx, QWORD PTR 16[rax]	# tmp104, entry_17->value
	mov	rax, QWORD PTR -40[rbp]	# tmp105, map
	mov	rdi, rax	#, tmp105
	call	MapPut	#
	jmp	.L90	#
.L92:
# std/map.h:33: 		if( !entry->key ){ continue; }
	.loc 6 33 22
	nop	
.L90:
.LBE7:
# std/map.h:30: 	for( U32 i = 0; i < old_max; i++ )
	.loc 6 30 32 discriminator 2
	add	DWORD PTR -24[rbp], 1	# i,
.L88:
# std/map.h:30: 	for( U32 i = 0; i < old_max; i++ )
	.loc 6 30 20 discriminator 1
	mov	eax, DWORD PTR -24[rbp]	# tmp106, i
	cmp	eax, DWORD PTR -20[rbp]	# tmp106, old_max
	jb	.L91	#,
.LBE6:
# std/map.h:36: 	free( entries );
	.loc 6 36 2
	mov	rax, QWORD PTR -16[rbp]	# tmp107, entries
	mov	rdi, rax	#, tmp107
	call	free@PLT	#
# std/map.h:37: }
	.loc 6 37 1
	nop	
	leave	
	.cfi_def_cfa 7, 8
	ret	
	.cfi_endproc
.LFE30:
	.size	MapGrow, .-MapGrow
	.globl	MapGet
	.type	MapGet, @function
MapGet:
.LFB31:
	.loc 6 40 1
	.cfi_startproc
	endbr64	
	push	rbp	#
	.cfi_def_cfa_offset 16
	.cfi_offset 6, -16
	mov	rbp, rsp	#,
	.cfi_def_cfa_register 6
	mov	QWORD PTR -24[rbp], rdi	# map, map
	mov	QWORD PTR -32[rbp], rsi	# key, key
# std/map.h:41: 	U32 idx = key->hash & ( map->max - 1 );
	.loc 6 41 15
	mov	rax, QWORD PTR -32[rbp]	# tmp95, key
	mov	edx, DWORD PTR 8[rax]	# _1, key_15(D)->hash
# std/map.h:41: 	U32 idx = key->hash & ( map->max - 1 );
	.loc 6 41 29
	mov	rax, QWORD PTR -24[rbp]	# tmp96, map
	mov	eax, DWORD PTR 12[rax]	# _2, map_16(D)->max
# std/map.h:41: 	U32 idx = key->hash & ( map->max - 1 );
	.loc 6 41 35
	sub	eax, 1	# _3,
# std/map.h:41: 	U32 idx = key->hash & ( map->max - 1 );
	.loc 6 41 6
	and	eax, edx	# tmp97, _1
	mov	DWORD PTR -12[rbp], eax	# idx, tmp97
.L97:
.LBB8:
# std/map.h:44: 		Entry *entry = &map->base[ idx ];
	.loc 6 44 22
	mov	rax, QWORD PTR -24[rbp]	# tmp98, map
	mov	rcx, QWORD PTR [rax]	# _4, map_16(D)->base
# std/map.h:44: 		Entry *entry = &map->base[ idx ];
	.loc 6 44 28
	mov	edx, DWORD PTR -12[rbp]	# _5, idx
	mov	rax, rdx	# tmp99, _5
	add	rax, rax	# tmp99
	add	rax, rdx	# tmp99, _5
	sal	rax, 3	# tmp100,
# std/map.h:44: 		Entry *entry = &map->base[ idx ];
	.loc 6 44 10
	add	rax, rcx	# tmp101, _4
	mov	QWORD PTR -8[rbp], rax	# entry, tmp101
# std/map.h:45: 		if( !entry->key ){ return entry; }
	.loc 6 45 13
	mov	rax, QWORD PTR -8[rbp]	# tmp102, entry
	mov	rax, QWORD PTR [rax]	# _7, entry_18->D.4226.key
# std/map.h:45: 		if( !entry->key ){ return entry; }
	.loc 6 45 5
	test	rax, rax	# _7
	jne	.L94	#,
# std/map.h:45: 		if( !entry->key ){ return entry; }
	.loc 6 45 29 discriminator 1
	mov	rax, QWORD PTR -8[rbp]	# _13, entry
# std/map.h:45: 		if( !entry->key ){ return entry; }
	.loc 6 45 29 is_stmt 0
	jmp	.L95	#
.L94:
# std/map.h:46: 		if( entry->key == key ){ return entry; }
	.loc 6 46 12 is_stmt 1
	mov	rax, QWORD PTR -8[rbp]	# tmp103, entry
	mov	rax, QWORD PTR [rax]	# _8, entry_18->D.4226.key
# std/map.h:46: 		if( entry->key == key ){ return entry; }
	.loc 6 46 5
	cmp	QWORD PTR -32[rbp], rax	# key, _8
	jne	.L96	#,
# std/map.h:46: 		if( entry->key == key ){ return entry; }
	.loc 6 46 35 discriminator 1
	mov	rax, QWORD PTR -8[rbp]	# _13, entry
# std/map.h:46: 		if( entry->key == key ){ return entry; }
	.loc 6 46 35 is_stmt 0
	jmp	.L95	#
.L96:
.LBE8:
# std/map.h:42: 	for( ;; idx = ( idx + 1 ) & ( map->max - 1 ) )
	.loc 6 42 22 is_stmt 1
	mov	eax, DWORD PTR -12[rbp]	# tmp104, idx
	lea	edx, 1[rax]	# _9,
# std/map.h:42: 	for( ;; idx = ( idx + 1 ) & ( map->max - 1 ) )
	.loc 6 42 35
	mov	rax, QWORD PTR -24[rbp]	# tmp105, map
	mov	eax, DWORD PTR 12[rax]	# _10, map_16(D)->max
# std/map.h:42: 	for( ;; idx = ( idx + 1 ) & ( map->max - 1 ) )
	.loc 6 42 41
	sub	eax, 1	# _11,
# std/map.h:42: 	for( ;; idx = ( idx + 1 ) & ( map->max - 1 ) )
	.loc 6 42 14
	and	eax, edx	# tmp106, _9
	mov	DWORD PTR -12[rbp], eax	# idx, tmp106
# std/map.h:43: 	{
	.loc 6 43 2
	jmp	.L97	#
.L95:
# std/map.h:49: }
	.loc 6 49 1
	pop	rbp	#
	.cfi_def_cfa 7, 8
	ret	
	.cfi_endproc
.LFE31:
	.size	MapGet, .-MapGet
	.globl	MapPut
	.type	MapPut, @function
MapPut:
.LFB32:
	.loc 6 52 1
	.cfi_startproc
	endbr64	
	push	rbp	#
	.cfi_def_cfa_offset 16
	.cfi_offset 6, -16
	mov	rbp, rsp	#,
	.cfi_def_cfa_register 6
	sub	rsp, 48	#,
	mov	QWORD PTR -24[rbp], rdi	# map, map
	mov	QWORD PTR -32[rbp], rsi	# key, key
	mov	eax, edx	# tmp90, value
	mov	rdx, rcx	#, tmp91
	mov	QWORD PTR -48[rbp], rax	# value, tmp89
	mov	QWORD PTR -40[rbp], rdx	# value,
# std/map.h:53: 	if( map->len > map->max ){ MapGrow( map ); }
	.loc 6 53 9
	mov	rax, QWORD PTR -24[rbp]	# tmp92, map
	mov	eax, DWORD PTR 8[rax]	# _1, map_10(D)->len
# std/map.h:53: 	if( map->len > map->max ){ MapGrow( map ); }
	.loc 6 53 20
	mov	rdx, QWORD PTR -24[rbp]	# tmp93, map
	mov	edx, DWORD PTR 12[rdx]	# _2, map_10(D)->max
# std/map.h:53: 	if( map->len > map->max ){ MapGrow( map ); }
	.loc 6 53 4
	cmp	edx, eax	# _2, _1
	jnb	.L99	#,
# std/map.h:53: 	if( map->len > map->max ){ MapGrow( map ); }
	.loc 6 53 29 discriminator 1
	mov	rax, QWORD PTR -24[rbp]	# tmp94, map
	mov	rdi, rax	#, tmp94
	call	MapGrow	#
.L99:
# std/map.h:54: 	Entry *entry = MapGet( map, key );
	.loc 6 54 17
	mov	rdx, QWORD PTR -32[rbp]	# tmp95, key
	mov	rax, QWORD PTR -24[rbp]	# tmp96, map
	mov	rsi, rdx	#, tmp95
	mov	rdi, rax	#, tmp96
	call	MapGet	#
	mov	QWORD PTR -8[rbp], rax	# entry, tmp97
# std/map.h:55: 	map->len += entry->key == NULL;
	.loc 6 55 5
	mov	rax, QWORD PTR -24[rbp]	# tmp98, map
	mov	edx, DWORD PTR 8[rax]	# _3, map_10(D)->len
# std/map.h:55: 	map->len += entry->key == NULL;
	.loc 6 55 19
	mov	rax, QWORD PTR -8[rbp]	# tmp99, entry
	mov	rax, QWORD PTR [rax]	# _4, entry_14->D.4226.key
# std/map.h:55: 	map->len += entry->key == NULL;
	.loc 6 55 25
	test	rax, rax	# _4
	sete	al	#, _5
	movzx	eax, al	# _6, _5
# std/map.h:55: 	map->len += entry->key == NULL;
	.loc 6 55 11
	add	edx, eax	# _7, _6
	mov	rax, QWORD PTR -24[rbp]	# tmp100, map
	mov	DWORD PTR 8[rax], edx	# map_10(D)->len, _7
# std/map.h:56: 	entry->key = key;
	.loc 6 56 13
	mov	rax, QWORD PTR -8[rbp]	# tmp101, entry
	mov	rdx, QWORD PTR -32[rbp]	# tmp102, key
	mov	QWORD PTR [rax], rdx	# entry_14->D.4226.key, tmp102
# std/map.h:57: 	entry->value = value;
	.loc 6 57 15
	mov	rcx, QWORD PTR -8[rbp]	# tmp103, entry
	mov	rax, QWORD PTR -48[rbp]	# tmp104, value
	mov	rdx, QWORD PTR -40[rbp]	#, value
	mov	QWORD PTR 8[rcx], rax	# entry_14->value, tmp104
	mov	QWORD PTR 16[rcx], rdx	# entry_14->value,
# std/map.h:58: }
	.loc 6 58 1
	nop	
	leave	
	.cfi_def_cfa 7, 8
	ret	
	.cfi_endproc
.LFE32:
	.size	MapPut, .-MapPut
	.globl	MapDel
	.type	MapDel, @function
MapDel:
.LFB33:
	.loc 6 61 1
	.cfi_startproc
	endbr64	
	push	rbp	#
	.cfi_def_cfa_offset 16
	.cfi_offset 6, -16
	mov	rbp, rsp	#,
	.cfi_def_cfa_register 6
	sub	rsp, 32	#,
	mov	QWORD PTR -24[rbp], rdi	# map, map
	mov	QWORD PTR -32[rbp], rsi	# key, key
# std/map.h:62: 	Entry *entry = MapGet( map, key );
	.loc 6 62 17
	mov	rdx, QWORD PTR -32[rbp]	# tmp82, key
	mov	rax, QWORD PTR -24[rbp]	# tmp83, map
	mov	rsi, rdx	#, tmp82
	mov	rdi, rax	#, tmp83
	call	MapGet	#
	mov	QWORD PTR -8[rbp], rax	# entry, tmp84
# std/map.h:63: 	entry->key = NULL;
	.loc 6 63 13
	mov	rax, QWORD PTR -8[rbp]	# tmp85, entry
	mov	QWORD PTR [rax], 0	# entry_5->D.4226.key,
# std/map.h:64: }
	.loc 6 64 1
	nop	
	leave	
	.cfi_def_cfa 7, 8
	ret	
	.cfi_endproc
.LFE33:
	.size	MapDel, .-MapDel
	.type	GetEnv, @function
GetEnv:
.LFB34:
	.file 7 "std/env.h"
	.loc 7 17 1
	.cfi_startproc
	push	rbp	#
	.cfi_def_cfa_offset 16
	.cfi_offset 6, -16
	mov	rbp, rsp	#,
	.cfi_def_cfa_register 6
# std/env.h:19: 	return &env;
	.loc 7 19 9
	lea	rax, env.36[rip]	# _1,
# std/env.h:20: }
	.loc 7 20 1
	pop	rbp	#
	.cfi_def_cfa 7, 8
	ret	
	.cfi_endproc
.LFE34:
	.size	GetEnv, .-GetEnv
	.globl	EnvAlloc
	.type	EnvAlloc, @function
EnvAlloc:
.LFB35:
	.loc 7 23 1
	.cfi_startproc
	endbr64	
	push	rbp	#
	.cfi_def_cfa_offset 16
	.cfi_offset 6, -16
	mov	rbp, rsp	#,
	.cfi_def_cfa_register 6
	sub	rsp, 16	#,
	mov	QWORD PTR -8[rbp], rdi	# env, env
	mov	DWORD PTR -12[rbp], esi	# max, max
# std/env.h:24: 	env->base = calloc( max, sizeof( Evar ) );
	.loc 7 24 14
	mov	eax, DWORD PTR -12[rbp]	# _1, max
	mov	esi, 8	#,
	mov	rdi, rax	#, _1
	call	calloc@PLT	#
	mov	rdx, rax	# _2, tmp84
# std/env.h:24: 	env->base = calloc( max, sizeof( Evar ) );
	.loc 7 24 12 discriminator 1
	mov	rax, QWORD PTR -8[rbp]	# tmp85, env
	mov	QWORD PTR [rax], rdx	# env_6(D)->base, _2
# std/env.h:25: 	env->len = 0;
	.loc 7 25 11
	mov	rax, QWORD PTR -8[rbp]	# tmp86, env
	mov	DWORD PTR 8[rax], 0	# env_6(D)->len,
# std/env.h:26: 	env->max = max;
	.loc 7 26 11
	mov	rax, QWORD PTR -8[rbp]	# tmp87, env
	mov	edx, DWORD PTR -12[rbp]	# tmp88, max
	mov	DWORD PTR 12[rax], edx	# env_6(D)->max, tmp88
# std/env.h:27: }
	.loc 7 27 1
	nop	
	leave	
	.cfi_def_cfa 7, 8
	ret	
	.cfi_endproc
.LFE35:
	.size	EnvAlloc, .-EnvAlloc
	.globl	EnvGrow
	.type	EnvGrow, @function
EnvGrow:
.LFB36:
	.loc 7 30 1
	.cfi_startproc
	endbr64	
	push	rbp	#
	.cfi_def_cfa_offset 16
	.cfi_offset 6, -16
	mov	rbp, rsp	#,
	.cfi_def_cfa_register 6
	sub	rsp, 64	#,
	mov	QWORD PTR -56[rbp], rdi	# env, env
# std/env.h:31: 	Evar *vars = env->base;
	.loc 7 31 8
	mov	rax, QWORD PTR -56[rbp]	# tmp89, env
	mov	rax, QWORD PTR [rax]	# tmp90, env_12(D)->base
	mov	QWORD PTR -32[rbp], rax	# vars, tmp90
# std/env.h:32: 	U32 old_max = env->max;
	.loc 7 32 6
	mov	rax, QWORD PTR -56[rbp]	# tmp91, env
	mov	eax, DWORD PTR 12[rax]	# tmp92, env_12(D)->max
	mov	DWORD PTR -36[rbp], eax	# old_max, tmp92
# std/env.h:33: 	Arena *strings = GetStrings( );
	.loc 7 33 19
	call	GetStrings	#
	mov	QWORD PTR -24[rbp], rax	# strings, tmp93
# std/env.h:34: 	EnvAlloc( env, env->max << 1 );
	.loc 7 34 20
	mov	rax, QWORD PTR -56[rbp]	# tmp94, env
	mov	eax, DWORD PTR 12[rax]	# _1, env_12(D)->max
# std/env.h:34: 	EnvAlloc( env, env->max << 1 );
	.loc 7 34 2
	lea	edx, [rax+rax]	# _2,
	mov	rax, QWORD PTR -56[rbp]	# tmp95, env
	mov	esi, edx	#, _2
	mov	rdi, rax	#, tmp95
	call	EnvAlloc	#
.LBB9:
# std/env.h:35: 	for( U32 i = 0; i < old_max; i++ )
	.loc 7 35 11
	mov	DWORD PTR -40[rbp], 0	# i,
# std/env.h:35: 	for( U32 i = 0; i < old_max; i++ )
	.loc 7 35 2
	jmp	.L105	#
.L108:
.LBB10:
# std/env.h:37: 		Evar *var = &vars[ i ];
	.loc 7 37 20
	mov	eax, DWORD PTR -40[rbp]	# _3, i
	lea	rdx, 0[0+rax*8]	# _4,
# std/env.h:37: 		Evar *var = &vars[ i ];
	.loc 7 37 9
	mov	rax, QWORD PTR -32[rbp]	# tmp99, vars
	add	rax, rdx	# tmp98, _4
	mov	QWORD PTR -16[rbp], rax	# var, tmp98
# std/env.h:38: 		if( !var->off ){ continue; } /* skip empties */
	.loc 7 38 11
	mov	rax, QWORD PTR -16[rbp]	# tmp100, var
	mov	eax, DWORD PTR [rax]	# _5, var_20->off
# std/env.h:38: 		if( !var->off ){ continue; } /* skip empties */
	.loc 7 38 5
	test	eax, eax	# _5
	je	.L109	#,
# std/env.h:39: 		String *str = ArenaOff( strings, var->off );
	.loc 7 39 17
	mov	rax, QWORD PTR -16[rbp]	# tmp101, var
	mov	edx, DWORD PTR [rax]	# _6, var_20->off
	mov	rax, QWORD PTR -24[rbp]	# tmp102, strings
	mov	esi, edx	#, _6
	mov	rdi, rax	#, tmp102
	call	ArenaOff	#
	mov	QWORD PTR -8[rbp], rax	# str, tmp103
# std/env.h:40: 		EnvPut( env, str, var->idx );
	.loc 7 40 3
	mov	rax, QWORD PTR -16[rbp]	# tmp104, var
	mov	edx, DWORD PTR 4[rax]	# _7, var_20->idx
	mov	rcx, QWORD PTR -8[rbp]	# tmp105, str
	mov	rax, QWORD PTR -56[rbp]	# tmp106, env
	mov	rsi, rcx	#, tmp105
	mov	rdi, rax	#, tmp106
	call	EnvPut	#
	jmp	.L107	#
.L109:
# std/env.h:38: 		if( !var->off ){ continue; } /* skip empties */
	.loc 7 38 20
	nop	
.L107:
.LBE10:
# std/env.h:35: 	for( U32 i = 0; i < old_max; i++ )
	.loc 7 35 32 discriminator 2
	add	DWORD PTR -40[rbp], 1	# i,
.L105:
# std/env.h:35: 	for( U32 i = 0; i < old_max; i++ )
	.loc 7 35 20 discriminator 1
	mov	eax, DWORD PTR -40[rbp]	# tmp107, i
	cmp	eax, DWORD PTR -36[rbp]	# tmp107, old_max
	jb	.L108	#,
.LBE9:
# std/env.h:42: 	free( vars );
	.loc 7 42 2
	mov	rax, QWORD PTR -32[rbp]	# tmp108, vars
	mov	rdi, rax	#, tmp108
	call	free@PLT	#
# std/env.h:43: }
	.loc 7 43 1
	nop	
	leave	
	.cfi_def_cfa 7, 8
	ret	
	.cfi_endproc
.LFE36:
	.size	EnvGrow, .-EnvGrow
	.globl	EvarToVar
	.type	EvarToVar, @function
EvarToVar:
.LFB37:
	.loc 7 46 1
	.cfi_startproc
	endbr64	
	push	rbp	#
	.cfi_def_cfa_offset 16
	.cfi_offset 6, -16
	mov	rbp, rsp	#,
	.cfi_def_cfa_register 6
	push	rbx	#
	sub	rsp, 8	#,
	.cfi_offset 3, -24
	mov	QWORD PTR -16[rbp], rdi	# evar, evar
# std/env.h:47: 	return VecGet( GetGlobals( ), evar->idx );
	.loc 7 47 9
	mov	rax, QWORD PTR -16[rbp]	# tmp86, evar
	mov	ebx, DWORD PTR 4[rax]	# _1, evar_4(D)->idx
	call	GetGlobals	#
# std/env.h:47: 	return VecGet( GetGlobals( ), evar->idx );
	.loc 7 47 9 is_stmt 0 discriminator 1
	mov	esi, ebx	#, _1
	mov	rdi, rax	#, _2
	call	VecGet	#
# std/env.h:48: }
	.loc 7 48 1 is_stmt 1
	mov	rbx, QWORD PTR -8[rbp]	#,
	leave	
	.cfi_def_cfa 7, 8
	ret	
	.cfi_endproc
.LFE37:
	.size	EvarToVar, .-EvarToVar
	.globl	EnvGet
	.type	EnvGet, @function
EnvGet:
.LFB38:
	.loc 7 51 1
	.cfi_startproc
	endbr64	
	push	rbp	#
	.cfi_def_cfa_offset 16
	.cfi_offset 6, -16
	mov	rbp, rsp	#,
	.cfi_def_cfa_register 6
	mov	QWORD PTR -24[rbp], rdi	# env, env
	mov	QWORD PTR -32[rbp], rsi	# name, name
# std/env.h:52: 	U32 idx = name->hash & ( env->max - 1 );
	.loc 7 52 16
	mov	rax, QWORD PTR -32[rbp]	# tmp96, name
	mov	edx, DWORD PTR 8[rax]	# _1, name_16(D)->hash
# std/env.h:52: 	U32 idx = name->hash & ( env->max - 1 );
	.loc 7 52 30
	mov	rax, QWORD PTR -24[rbp]	# tmp97, env
	mov	eax, DWORD PTR 12[rax]	# _2, env_17(D)->max
# std/env.h:52: 	U32 idx = name->hash & ( env->max - 1 );
	.loc 7 52 36
	sub	eax, 1	# _3,
# std/env.h:52: 	U32 idx = name->hash & ( env->max - 1 );
	.loc 7 52 6
	and	eax, edx	# tmp98, _1
	mov	DWORD PTR -12[rbp], eax	# idx, tmp98
.L116:
.LBB11:
# std/env.h:55: 		Evar *var = &env->base[ idx ];
	.loc 7 55 19
	mov	rax, QWORD PTR -24[rbp]	# tmp99, env
	mov	rax, QWORD PTR [rax]	# _4, env_17(D)->base
# std/env.h:55: 		Evar *var = &env->base[ idx ];
	.loc 7 55 25
	mov	edx, DWORD PTR -12[rbp]	# _5, idx
	sal	rdx, 3	# _6,
# std/env.h:55: 		Evar *var = &env->base[ idx ];
	.loc 7 55 9
	add	rax, rdx	# tmp100, _6
	mov	QWORD PTR -8[rbp], rax	# var, tmp100
# std/env.h:56: 		if( !var->off ){ return var; }
	.loc 7 56 11
	mov	rax, QWORD PTR -8[rbp]	# tmp101, var
	mov	eax, DWORD PTR [rax]	# _7, var_19->off
# std/env.h:56: 		if( !var->off ){ return var; }
	.loc 7 56 5
	test	eax, eax	# _7
	jne	.L113	#,
# std/env.h:56: 		if( !var->off ){ return var; }
	.loc 7 56 27 discriminator 1
	mov	rax, QWORD PTR -8[rbp]	# _14, var
# std/env.h:56: 		if( !var->off ){ return var; }
	.loc 7 56 27 is_stmt 0
	jmp	.L114	#
.L113:
# std/env.h:57: 		if( var->off == name->offset ){ return var; }
	.loc 7 57 10 is_stmt 1
	mov	rax, QWORD PTR -8[rbp]	# tmp102, var
	mov	edx, DWORD PTR [rax]	# _8, var_19->off
# std/env.h:57: 		if( var->off == name->offset ){ return var; }
	.loc 7 57 23
	mov	rax, QWORD PTR -32[rbp]	# tmp103, name
	mov	eax, DWORD PTR [rax]	# _9, name_16(D)->offset
# std/env.h:57: 		if( var->off == name->offset ){ return var; }
	.loc 7 57 5
	cmp	edx, eax	# _8, _9
	jne	.L115	#,
# std/env.h:57: 		if( var->off == name->offset ){ return var; }
	.loc 7 57 42 discriminator 1
	mov	rax, QWORD PTR -8[rbp]	# _14, var
# std/env.h:57: 		if( var->off == name->offset ){ return var; }
	.loc 7 57 42 is_stmt 0
	jmp	.L114	#
.L115:
.LBE11:
# std/env.h:53: 	for( ;; idx = ( idx + 1 ) & ( env->max - 1 ) )
	.loc 7 53 22 is_stmt 1
	mov	eax, DWORD PTR -12[rbp]	# tmp104, idx
	lea	edx, 1[rax]	# _10,
# std/env.h:53: 	for( ;; idx = ( idx + 1 ) & ( env->max - 1 ) )
	.loc 7 53 35
	mov	rax, QWORD PTR -24[rbp]	# tmp105, env
	mov	eax, DWORD PTR 12[rax]	# _11, env_17(D)->max
# std/env.h:53: 	for( ;; idx = ( idx + 1 ) & ( env->max - 1 ) )
	.loc 7 53 41
	sub	eax, 1	# _12,
# std/env.h:53: 	for( ;; idx = ( idx + 1 ) & ( env->max - 1 ) )
	.loc 7 53 14
	and	eax, edx	# tmp106, _10
	mov	DWORD PTR -12[rbp], eax	# idx, tmp106
# std/env.h:54: 	{
	.loc 7 54 2
	jmp	.L116	#
.L114:
# std/env.h:60: }
	.loc 7 60 1
	pop	rbp	#
	.cfi_def_cfa 7, 8
	ret	
	.cfi_endproc
.LFE38:
	.size	EnvGet, .-EnvGet
	.globl	EnvPut
	.type	EnvPut, @function
EnvPut:
.LFB39:
	.loc 7 63 1
	.cfi_startproc
	endbr64	
	push	rbp	#
	.cfi_def_cfa_offset 16
	.cfi_offset 6, -16
	mov	rbp, rsp	#,
	.cfi_def_cfa_register 6
	sub	rsp, 48	#,
	mov	QWORD PTR -24[rbp], rdi	# env, env
	mov	QWORD PTR -32[rbp], rsi	# name, name
	mov	DWORD PTR -36[rbp], edx	# idx, idx
# std/env.h:64: 	if( env->len > env->max ){ EnvGrow( env ); }
	.loc 7 64 9
	mov	rax, QWORD PTR -24[rbp]	# tmp90, env
	mov	eax, DWORD PTR 8[rax]	# _1, env_11(D)->len
# std/env.h:64: 	if( env->len > env->max ){ EnvGrow( env ); }
	.loc 7 64 20
	mov	rdx, QWORD PTR -24[rbp]	# tmp91, env
	mov	edx, DWORD PTR 12[rdx]	# _2, env_11(D)->max
# std/env.h:64: 	if( env->len > env->max ){ EnvGrow( env ); }
	.loc 7 64 4
	cmp	edx, eax	# _2, _1
	jnb	.L118	#,
# std/env.h:64: 	if( env->len > env->max ){ EnvGrow( env ); }
	.loc 7 64 29 discriminator 1
	mov	rax, QWORD PTR -24[rbp]	# tmp92, env
	mov	rdi, rax	#, tmp92
	call	EnvGrow	#
.L118:
# std/env.h:65: 	Evar *var = EnvGet( env, name );
	.loc 7 65 14
	mov	rdx, QWORD PTR -32[rbp]	# tmp93, name
	mov	rax, QWORD PTR -24[rbp]	# tmp94, env
	mov	rsi, rdx	#, tmp93
	mov	rdi, rax	#, tmp94
	call	EnvGet	#
	mov	QWORD PTR -8[rbp], rax	# var, tmp95
# std/env.h:66: 	env->len += var->off == 0;
	.loc 7 66 5
	mov	rax, QWORD PTR -24[rbp]	# tmp96, env
	mov	edx, DWORD PTR 8[rax]	# _3, env_11(D)->len
# std/env.h:66: 	env->len += var->off == 0;
	.loc 7 66 17
	mov	rax, QWORD PTR -8[rbp]	# tmp97, var
	mov	eax, DWORD PTR [rax]	# _4, var_15->off
# std/env.h:66: 	env->len += var->off == 0;
	.loc 7 66 23
	test	eax, eax	# _4
	sete	al	#, _5
	movzx	eax, al	# _6, _5
# std/env.h:66: 	env->len += var->off == 0;
	.loc 7 66 11
	add	edx, eax	# _7, _6
	mov	rax, QWORD PTR -24[rbp]	# tmp98, env
	mov	DWORD PTR 8[rax], edx	# env_11(D)->len, _7
# std/env.h:67: 	var->off = name->offset;
	.loc 7 67 17
	mov	rax, QWORD PTR -32[rbp]	# tmp99, name
	mov	edx, DWORD PTR [rax]	# _8, name_13(D)->offset
# std/env.h:67: 	var->off = name->offset;
	.loc 7 67 11
	mov	rax, QWORD PTR -8[rbp]	# tmp100, var
	mov	DWORD PTR [rax], edx	# var_15->off, _8
# std/env.h:68: 	var->idx = idx;
	.loc 7 68 11
	mov	rax, QWORD PTR -8[rbp]	# tmp101, var
	mov	edx, DWORD PTR -36[rbp]	# tmp102, idx
	mov	DWORD PTR 4[rax], edx	# var_15->idx, tmp102
# std/env.h:69: }
	.loc 7 69 1
	nop	
	leave	
	.cfi_def_cfa 7, 8
	ret	
	.cfi_endproc
.LFE39:
	.size	EnvPut, .-EnvPut
	.globl	EnvDel
	.type	EnvDel, @function
EnvDel:
.LFB40:
	.loc 7 72 1
	.cfi_startproc
	endbr64	
	push	rbp	#
	.cfi_def_cfa_offset 16
	.cfi_offset 6, -16
	mov	rbp, rsp	#,
	.cfi_def_cfa_register 6
	sub	rsp, 32	#,
	mov	QWORD PTR -24[rbp], rdi	# env, env
	mov	QWORD PTR -32[rbp], rsi	# name, name
# std/env.h:73: 	Evar *var = EnvGet( env, name );
	.loc 7 73 14
	mov	rdx, QWORD PTR -32[rbp]	# tmp82, name
	mov	rax, QWORD PTR -24[rbp]	# tmp83, env
	mov	rsi, rdx	#, tmp82
	mov	rdi, rax	#, tmp83
	call	EnvGet	#
	mov	QWORD PTR -8[rbp], rax	# var, tmp84
# std/env.h:74: 	if( !var ){ return; }
	.loc 7 74 4
	cmp	QWORD PTR -8[rbp], 0	# var,
	je	.L122	#,
# std/env.h:75: 	var->off = 0;
	.loc 7 75 11
	mov	rax, QWORD PTR -8[rbp]	# tmp85, var
	mov	DWORD PTR [rax], 0	# var_6->off,
	jmp	.L119	#
.L122:
# std/env.h:74: 	if( !var ){ return; }
	.loc 7 74 14
	nop	
.L119:
# std/env.h:76: }
	.loc 7 76 1
	leave	
	.cfi_def_cfa 7, 8
	ret	
	.cfi_endproc
.LFE40:
	.size	EnvDel, .-EnvDel
	.type	GetJmp, @function
GetJmp:
.LFB41:
	.file 8 "std/err.h"
	.loc 8 2 1
	.cfi_startproc
	push	rbp	#
	.cfi_def_cfa_offset 16
	.cfi_offset 6, -16
	mov	rbp, rsp	#,
	.cfi_def_cfa_register 6
# std/err.h:4: 	return &buf;
	.loc 8 4 9
	lea	rax, buf.46[rip]	# _1,
# std/err.h:5: }
	.loc 8 5 1
	pop	rbp	#
	.cfi_def_cfa 7, 8
	ret	
	.cfi_endproc
.LFE41:
	.size	GetJmp, .-GetJmp
	.type	Throw, @function
Throw:
.LFB42:
	.loc 8 8 1
	.cfi_startproc
	push	rbp	#
	.cfi_def_cfa_offset 16
	.cfi_offset 6, -16
	mov	rbp, rsp	#,
	.cfi_def_cfa_register 6
	sub	rsp, 224	#,
	mov	QWORD PTR -216[rbp], rdi	# fmt, fmt
	mov	QWORD PTR -168[rbp], rsi	#,
	mov	QWORD PTR -160[rbp], rdx	#,
	mov	QWORD PTR -152[rbp], rcx	#,
	mov	QWORD PTR -144[rbp], r8	#,
	mov	QWORD PTR -136[rbp], r9	#,
	test	al, al	#
	je	.L126	#,
	movaps	XMMWORD PTR -128[rbp], xmm0	#,
	movaps	XMMWORD PTR -112[rbp], xmm1	#,
	movaps	XMMWORD PTR -96[rbp], xmm2	#,
	movaps	XMMWORD PTR -80[rbp], xmm3	#,
	movaps	XMMWORD PTR -64[rbp], xmm4	#,
	movaps	XMMWORD PTR -48[rbp], xmm5	#,
	movaps	XMMWORD PTR -32[rbp], xmm6	#,
	movaps	XMMWORD PTR -16[rbp], xmm7	#,
.L126:
# std/err.h:8: {
	.loc 8 8 1
	mov	rax, QWORD PTR fs:40	# tmp87, MEM[(<address-space-1> long unsigned int *)40B]
	mov	QWORD PTR -184[rbp], rax	# D.6514, tmp87
	xor	eax, eax	# tmp87
# std/err.h:10: 	va_start( args, fmt );
	.loc 8 10 2
	mov	DWORD PTR -208[rbp], 8	# MEM[(struct [1] *)&args].gp_offset,
	mov	DWORD PTR -204[rbp], 48	# MEM[(struct [1] *)&args].fp_offset,
	lea	rax, 16[rbp]	# tmp89,
	mov	QWORD PTR -200[rbp], rax	# MEM[(struct [1] *)&args].overflow_arg_area, tmp89
	lea	rax, -176[rbp]	# tmp90,
	mov	QWORD PTR -192[rbp], rax	# MEM[(struct [1] *)&args].reg_save_area, tmp90
# std/err.h:11: 	vfprintf( stderr, fmt, args );
	.loc 8 11 2
	mov	rax, QWORD PTR stderr[rip]	# stderr.2_1, stderr
	lea	rdx, -208[rbp]	# tmp85,
	mov	rcx, QWORD PTR -216[rbp]	# tmp86, fmt
	mov	rsi, rcx	#, tmp86
	mov	rdi, rax	#, stderr.2_1
	call	vfprintf@PLT	#
# std/err.h:13: 	longjmp( *GetJmp( ), 1 );
	.loc 8 13 12
	call	GetJmp	#
# std/err.h:13: 	longjmp( *GetJmp( ), 1 );
	.loc 8 13 2 discriminator 1
	mov	esi, 1	#,
	mov	rdi, rax	#, _2
	call	longjmp@PLT	#
	.cfi_endproc
.LFE42:
	.size	Throw, .-Throw
	.section	.rodata
.LC1:
	.string	"rb"
.LC2:
	.string	"File not found: %s\n"
	.text
	.type	IoRead, @function
IoRead:
.LFB43:
	.file 9 "std/io.h"
	.loc 9 2 1
	.cfi_startproc
	push	rbp	#
	.cfi_def_cfa_offset 16
	.cfi_offset 6, -16
	mov	rbp, rsp	#,
	.cfi_def_cfa_register 6
	sub	rsp, 48	#,
	mov	QWORD PTR -40[rbp], rdi	# src, src
	mov	QWORD PTR -48[rbp], rsi	# file, file
# std/io.h:3: 	FILE *stream = fopen( file, "rb" );
	.loc 9 3 17
	mov	rax, QWORD PTR -48[rbp]	# tmp86, file
	lea	rdx, .LC1[rip]	# tmp87,
	mov	rsi, rdx	#, tmp87
	mov	rdi, rax	#, tmp86
	call	fopen@PLT	#
	mov	QWORD PTR -32[rbp], rax	# stream, tmp88
# std/io.h:4: 	if( !stream ){ Throw( "File not found: %s\n", file ); }
	.loc 9 4 4
	cmp	QWORD PTR -32[rbp], 0	# stream,
	jne	.L129	#,
# std/io.h:4: 	if( !stream ){ Throw( "File not found: %s\n", file ); }
	.loc 9 4 17 discriminator 1
	mov	rax, QWORD PTR -48[rbp]	# tmp89, file
	mov	rsi, rax	#, tmp89
	lea	rax, .LC2[rip]	# tmp90,
	mov	rdi, rax	#, tmp90
	mov	eax, 0	#,
	call	Throw	#
.L129:
# std/io.h:5: 	fseek( stream, 0, SEEK_END );
	.loc 9 5 2
	mov	rax, QWORD PTR -32[rbp]	# tmp91, stream
	mov	edx, 2	#,
	mov	esi, 0	#,
	mov	rdi, rax	#, tmp91
	call	fseek@PLT	#
# std/io.h:6: 	long len = ftell( stream );
	.loc 9 6 13
	mov	rax, QWORD PTR -32[rbp]	# tmp92, stream
	mov	rdi, rax	#, tmp92
	call	ftell@PLT	#
	mov	QWORD PTR -24[rbp], rax	# len, tmp93
# std/io.h:7: 	fseek( stream, 0, SEEK_SET );
	.loc 9 7 2
	mov	rax, QWORD PTR -32[rbp]	# tmp94, stream
	mov	edx, 0	#,
	mov	esi, 0	#,
	mov	rdi, rax	#, tmp94
	call	fseek@PLT	#
# std/io.h:9: 	I8 *buf = ArenaOff( src, ArenaPush( src, len, 1 ) );
	.loc 9 9 12
	mov	rax, QWORD PTR -24[rbp]	# tmp95, len
	mov	ecx, eax	# _1, tmp95
	mov	rax, QWORD PTR -40[rbp]	# tmp96, src
	mov	edx, 1	#,
	mov	esi, ecx	#, _1
	mov	rdi, rax	#, tmp96
	call	ArenaPush	#
	mov	edx, eax	# _2,
# std/io.h:9: 	I8 *buf = ArenaOff( src, ArenaPush( src, len, 1 ) );
	.loc 9 9 12 is_stmt 0 discriminator 1
	mov	rax, QWORD PTR -40[rbp]	# tmp97, src
	mov	esi, edx	#, _2
	mov	rdi, rax	#, tmp97
	call	ArenaOff	#
	mov	QWORD PTR -16[rbp], rax	# buf, tmp98
# std/io.h:10: 	U64 bytes = fread( buf, sizeof( I8 ), len, stream );
	.loc 9 10 14 is_stmt 1
	mov	rdx, QWORD PTR -24[rbp]	# len.67_3, len
	mov	rcx, QWORD PTR -32[rbp]	# tmp99, stream
	mov	rax, QWORD PTR -16[rbp]	# tmp100, buf
	mov	esi, 1	#,
	mov	rdi, rax	#, tmp100
	call	fread@PLT	#
	mov	QWORD PTR -8[rbp], rax	# bytes, tmp101
# std/io.h:11: 	buf[ bytes ] = '\0';
	.loc 9 11 5
	mov	rdx, QWORD PTR -16[rbp]	# tmp102, buf
	mov	rax, QWORD PTR -8[rbp]	# tmp103, bytes
	add	rax, rdx	# _4, tmp102
# std/io.h:11: 	buf[ bytes ] = '\0';
	.loc 9 11 15
	mov	BYTE PTR [rax], 0	# *_4,
# std/io.h:12: 	fclose( stream );
	.loc 9 12 2
	mov	rax, QWORD PTR -32[rbp]	# tmp104, stream
	mov	rdi, rax	#, tmp104
	call	fclose@PLT	#
# std/io.h:13: }
	.loc 9 13 1
	nop	
	leave	
	.cfi_def_cfa 7, 8
	ret	
	.cfi_endproc
.LFE43:
	.size	IoRead, .-IoRead
	.type	GetLexer, @function
GetLexer:
.LFB44:
	.file 10 "lexer/lexer.h"
	.loc 10 17 1
	.cfi_startproc
	push	rbp	#
	.cfi_def_cfa_offset 16
	.cfi_offset 6, -16
	mov	rbp, rsp	#,
	.cfi_def_cfa_register 6
# lexer/lexer.h:19: 	return &lexer;
	.loc 10 19 9
	lea	rax, lexer.47[rip]	# _1,
# lexer/lexer.h:20: }
	.loc 10 20 1
	pop	rbp	#
	.cfi_def_cfa 7, 8
	ret	
	.cfi_endproc
.LFE44:
	.size	GetLexer, .-GetLexer
	.type	LexerInit, @function
LexerInit:
.LFB45:
	.loc 10 23 1
	.cfi_startproc
	push	rbp	#
	.cfi_def_cfa_offset 16
	.cfi_offset 6, -16
	mov	rbp, rsp	#,
	.cfi_def_cfa_register 6
	sub	rsp, 32	#,
	mov	QWORD PTR -24[rbp], rdi	# src, src
	mov	QWORD PTR -32[rbp], rsi	# interns, interns
# lexer/lexer.h:24: 	Lexer *lexer = GetLexer( );
	.loc 10 24 17
	call	GetLexer	#
	mov	QWORD PTR -8[rbp], rax	# lexer, tmp84
# lexer/lexer.h:25: 	lexer->start = ( I8* )src->base;
	.loc 10 25 27
	mov	rax, QWORD PTR -24[rbp]	# tmp85, src
	mov	rdx, QWORD PTR [rax]	# _1, src_6(D)->base
# lexer/lexer.h:25: 	lexer->start = ( I8* )src->base;
	.loc 10 25 15
	mov	rax, QWORD PTR -8[rbp]	# tmp86, lexer
	mov	QWORD PTR [rax], rdx	# lexer_5->start, _1
# lexer/lexer.h:26: 	lexer->end = ( I8* )src->base;
	.loc 10 26 25
	mov	rax, QWORD PTR -24[rbp]	# tmp87, src
	mov	rdx, QWORD PTR [rax]	# _2, src_6(D)->base
# lexer/lexer.h:26: 	lexer->end = ( I8* )src->base;
	.loc 10 26 13
	mov	rax, QWORD PTR -8[rbp]	# tmp88, lexer
	mov	QWORD PTR 8[rax], rdx	# lexer_5->end, _2
# lexer/lexer.h:27: 	lexer->col = 1;
	.loc 10 27 13
	mov	rax, QWORD PTR -8[rbp]	# tmp89, lexer
	mov	DWORD PTR 20[rax], 1	# lexer_5->col,
# lexer/lexer.h:28: 	lexer->line = 1;
	.loc 10 28 14
	mov	rax, QWORD PTR -8[rbp]	# tmp90, lexer
	mov	DWORD PTR 16[rax], 1	# lexer_5->line,
# lexer/lexer.h:29: 	lexer->interns = interns;
	.loc 10 29 17
	mov	rax, QWORD PTR -8[rbp]	# tmp91, lexer
	mov	rdx, QWORD PTR -32[rbp]	# tmp92, interns
	mov	QWORD PTR 24[rax], rdx	# lexer_5->interns, tmp92
# lexer/lexer.h:30: }
	.loc 10 30 1
	nop	
	leave	
	.cfi_def_cfa 7, 8
	ret	
	.cfi_endproc
.LFE45:
	.size	LexerInit, .-LexerInit
	.type	LexReinit, @function
LexReinit:
.LFB46:
	.loc 10 33 1
	.cfi_startproc
	push	rbp	#
	.cfi_def_cfa_offset 16
	.cfi_offset 6, -16
	mov	rbp, rsp	#,
	.cfi_def_cfa_register 6
	sub	rsp, 24	#,
	mov	QWORD PTR -24[rbp], rdi	# src, src
# lexer/lexer.h:34: 	Lexer *lexer = GetLexer( );
	.loc 10 34 17
	call	GetLexer	#
	mov	QWORD PTR -8[rbp], rax	# lexer, tmp83
# lexer/lexer.h:35: 	lexer->end = lexer->start = src;
	.loc 10 35 28
	mov	rax, QWORD PTR -8[rbp]	# tmp84, lexer
	mov	rdx, QWORD PTR -24[rbp]	# tmp85, src
	mov	QWORD PTR [rax], rdx	# lexer_4->start, tmp85
# lexer/lexer.h:35: 	lexer->end = lexer->start = src;
	.loc 10 35 20
	mov	rax, QWORD PTR -8[rbp]	# tmp86, lexer
	mov	rdx, QWORD PTR [rax]	# _1, lexer_4->start
# lexer/lexer.h:35: 	lexer->end = lexer->start = src;
	.loc 10 35 13
	mov	rax, QWORD PTR -8[rbp]	# tmp87, lexer
	mov	QWORD PTR 8[rax], rdx	# lexer_4->end, _1
# lexer/lexer.h:36: }
	.loc 10 36 1
	nop	
	leave	
	.cfi_def_cfa 7, 8
	ret	
	.cfi_endproc
.LFE46:
	.size	LexReinit, .-LexReinit
	.type	LexSet, @function
LexSet:
.LFB47:
	.loc 10 39 1
	.cfi_startproc
	push	rbp	#
	.cfi_def_cfa_offset 16
	.cfi_offset 6, -16
	mov	rbp, rsp	#,
	.cfi_def_cfa_register 6
	mov	QWORD PTR -40[rbp], rdi	# .result_ptr, .result_ptr
	mov	QWORD PTR -48[rbp], rsi	# lexer, lexer
	mov	DWORD PTR -52[rbp], edx	# type, type
	mov	eax, ecx	# tmp90, off
	mov	edx, r8d	# tmp92, len
	mov	BYTE PTR -56[rbp], al	# off, tmp91
	mov	eax, edx	# tmp93, tmp92
	mov	BYTE PTR -60[rbp], al	# len, tmp93
# lexer/lexer.h:40: 	lexer->end += len;
	.loc 10 40 7
	mov	rax, QWORD PTR -48[rbp]	# tmp94, lexer
	mov	rdx, QWORD PTR 8[rax]	# _1, lexer_10(D)->end
# lexer/lexer.h:40: 	lexer->end += len;
	.loc 10 40 13
	movzx	eax, BYTE PTR -60[rbp]	# _2, len
	add	rdx, rax	# _3, _2
	mov	rax, QWORD PTR -48[rbp]	# tmp95, lexer
	mov	QWORD PTR 8[rax], rdx	# lexer_10(D)->end, _3
# lexer/lexer.h:41: 	lexer->col += len;
	.loc 10 41 7
	mov	rax, QWORD PTR -48[rbp]	# tmp96, lexer
	mov	edx, DWORD PTR 20[rax]	# _4, lexer_10(D)->col
# lexer/lexer.h:41: 	lexer->col += len;
	.loc 10 41 13
	movzx	eax, BYTE PTR -60[rbp]	# _5, len
	add	edx, eax	# _6, _5
	mov	rax, QWORD PTR -48[rbp]	# tmp97, lexer
	mov	DWORD PTR 20[rax], edx	# lexer_10(D)->col, _6
# lexer/lexer.h:42: 	return ( Token ){ .type = type + off };
	.loc 10 42 33
	movzx	edx, BYTE PTR -56[rbp]	# _7, off
	mov	eax, DWORD PTR -52[rbp]	# tmp98, type
	add	edx, eax	# _8, tmp98
# lexer/lexer.h:42: 	return ( Token ){ .type = type + off };
	.loc 10 42 9
	mov	rax, QWORD PTR -40[rbp]	# tmp99, .result_ptr
	pxor	xmm0, xmm0	# tmp100
	movups	XMMWORD PTR [rax], xmm0	# <retval>, tmp100
	movq	QWORD PTR 16[rax], xmm0	# <retval>, tmp100
	mov	rax, QWORD PTR -40[rbp]	# tmp101, .result_ptr
	mov	DWORD PTR [rax], edx	# <retval>.type, _8
# lexer/lexer.h:43: }
	.loc 10 43 1
	mov	rax, QWORD PTR -40[rbp]	#, .result_ptr
	pop	rbp	#
	.cfi_def_cfa 7, 8
	ret	
	.cfi_endproc
.LFE47:
	.size	LexSet, .-LexSet
	.type	LexEof, @function
LexEof:
.LFB48:
	.loc 10 45 34
	.cfi_startproc
	push	rbp	#
	.cfi_def_cfa_offset 16
	.cfi_offset 6, -16
	mov	rbp, rsp	#,
	.cfi_def_cfa_register 6
	sub	rsp, 32	#,
	mov	QWORD PTR -24[rbp], rdi	# .result_ptr, .result_ptr
	mov	QWORD PTR -32[rbp], rsi	# lexer, lexer
# lexer/lexer.h:45: STIL Token LexEof( Lexer *lexer ){ return LexSet( lexer, TK_EOS, 0, 0 ); }
	.loc 10 45 34
	mov	rax, QWORD PTR fs:40	# tmp84, MEM[(<address-space-1> long unsigned int *)40B]
	mov	QWORD PTR -8[rbp], rax	# D.6521, tmp84
	xor	eax, eax	# tmp84
# lexer/lexer.h:45: STIL Token LexEof( Lexer *lexer ){ return LexSet( lexer, TK_EOS, 0, 0 ); }
	.loc 10 45 43
	mov	rax, QWORD PTR -24[rbp]	# tmp82, .result_ptr
	mov	rsi, QWORD PTR -32[rbp]	# tmp83, lexer
	mov	r8d, 0	#,
	mov	ecx, 0	#,
	mov	edx, 0	#,
	mov	rdi, rax	#, tmp82
	call	LexSet	#
# lexer/lexer.h:45: STIL Token LexEof( Lexer *lexer ){ return LexSet( lexer, TK_EOS, 0, 0 ); }
	.loc 10 45 74
	mov	rax, QWORD PTR -8[rbp]	# tmp85, D.6521
	sub	rax, QWORD PTR fs:40	# tmp85, MEM[(<address-space-1> long unsigned int *)40B]
	je	.L138	#,
	call	__stack_chk_fail@PLT	#
.L138:
	mov	rax, QWORD PTR -24[rbp]	#, .result_ptr
	leave	
	.cfi_def_cfa 7, 8
	ret	
	.cfi_endproc
.LFE48:
	.size	LexEof, .-LexEof
	.type	LexLine, @function
LexLine:
.LFB49:
	.loc 10 48 1
	.cfi_startproc
	push	rbp	#
	.cfi_def_cfa_offset 16
	.cfi_offset 6, -16
	mov	rbp, rsp	#,
	.cfi_def_cfa_register 6
	mov	QWORD PTR -8[rbp], rdi	# lexer, lexer
# lexer/lexer.h:49: 	lexer->line++;
	.loc 10 49 7
	mov	rax, QWORD PTR -8[rbp]	# tmp84, lexer
	mov	eax, DWORD PTR 16[rax]	# _1, lexer_4(D)->line
# lexer/lexer.h:49: 	lexer->line++;
	.loc 10 49 13
	lea	edx, 1[rax]	# _2,
	mov	rax, QWORD PTR -8[rbp]	# tmp85, lexer
	mov	DWORD PTR 16[rax], edx	# lexer_4(D)->line, _2
# lexer/lexer.h:50: 	lexer->col = 0; 
	.loc 10 50 13
	mov	rax, QWORD PTR -8[rbp]	# tmp86, lexer
	mov	DWORD PTR 20[rax], 0	# lexer_4(D)->col,
# lexer/lexer.h:51: }
	.loc 10 51 1
	nop	
	pop	rbp	#
	.cfi_def_cfa 7, 8
	ret	
	.cfi_endproc
.LFE49:
	.size	LexLine, .-LexLine
	.type	LexNot, @function
LexNot:
.LFB50:
	.loc 10 54 1
	.cfi_startproc
	push	rbp	#
	.cfi_def_cfa_offset 16
	.cfi_offset 6, -16
	mov	rbp, rsp	#,
	.cfi_def_cfa_register 6
	sub	rsp, 32	#,
	mov	QWORD PTR -24[rbp], rdi	# .result_ptr, .result_ptr
	mov	QWORD PTR -32[rbp], rsi	# lexer, lexer
# lexer/lexer.h:54: {	/* ! != */
	.loc 10 54 1
	mov	rax, QWORD PTR fs:40	# tmp90, MEM[(<address-space-1> long unsigned int *)40B]
	mov	QWORD PTR -8[rbp], rax	# D.6524, tmp90
	xor	eax, eax	# tmp90
# lexer/lexer.h:55: 	U8 off = ( *lexer->end == '=' );
	.loc 10 55 19
	mov	rax, QWORD PTR -32[rbp]	# tmp87, lexer
	mov	rax, QWORD PTR 8[rax]	# _1, lexer_7(D)->end
# lexer/lexer.h:55: 	U8 off = ( *lexer->end == '=' );
	.loc 10 55 13
	movzx	eax, BYTE PTR [rax]	# _2, *_1
# lexer/lexer.h:55: 	U8 off = ( *lexer->end == '=' );
	.loc 10 55 25
	cmp	al, 61	# _2,
	sete	al	#, _3
# lexer/lexer.h:55: 	U8 off = ( *lexer->end == '=' );
	.loc 10 55 5
	mov	BYTE PTR -9[rbp], al	# off, _3
# lexer/lexer.h:56: 	return LexSet( lexer, TK_NOT, off, off );
	.loc 10 56 9
	movzx	ecx, BYTE PTR -9[rbp]	# _4, off
	movzx	edx, BYTE PTR -9[rbp]	# _5, off
	mov	rax, QWORD PTR -24[rbp]	# tmp88, .result_ptr
	mov	rsi, QWORD PTR -32[rbp]	# tmp89, lexer
	mov	r8d, ecx	#, _4
	mov	ecx, edx	#, _5
	mov	edx, 1	#,
	mov	rdi, rax	#, tmp88
	call	LexSet	#
# lexer/lexer.h:57: }
	.loc 10 57 1
	mov	rax, QWORD PTR -8[rbp]	# tmp91, D.6524
	sub	rax, QWORD PTR fs:40	# tmp91, MEM[(<address-space-1> long unsigned int *)40B]
	je	.L142	#,
	call	__stack_chk_fail@PLT	#
.L142:
	mov	rax, QWORD PTR -24[rbp]	#, .result_ptr
	leave	
	.cfi_def_cfa 7, 8
	ret	
	.cfi_endproc
.LFE50:
	.size	LexNot, .-LexNot
	.section	.rodata
.LC3:
	.string	"Unterminated String\n"
	.text
	.type	LexStr, @function
LexStr:
.LFB51:
	.loc 10 60 1
	.cfi_startproc
	push	rbp	#
	.cfi_def_cfa_offset 16
	.cfi_offset 6, -16
	mov	rbp, rsp	#,
	.cfi_def_cfa_register 6
	sub	rsp, 64	#,
	mov	QWORD PTR -56[rbp], rdi	# .result_ptr, .result_ptr
	mov	QWORD PTR -64[rbp], rsi	# lexer, lexer
# lexer/lexer.h:61: 	while( *lexer->end && *lexer->end != '"' ){ lexer->end++; }
	.loc 10 61 7
	jmp	.L144	#
.L146:
# lexer/lexer.h:61: 	while( *lexer->end && *lexer->end != '"' ){ lexer->end++; }
	.loc 10 61 51 discriminator 3
	mov	rax, QWORD PTR -64[rbp]	# tmp103, lexer
	mov	rax, QWORD PTR 8[rax]	# _1, lexer_25(D)->end
# lexer/lexer.h:61: 	while( *lexer->end && *lexer->end != '"' ){ lexer->end++; }
	.loc 10 61 56 discriminator 3
	lea	rdx, 1[rax]	# _2,
	mov	rax, QWORD PTR -64[rbp]	# tmp104, lexer
	mov	QWORD PTR 8[rax], rdx	# lexer_25(D)->end, _2
.L144:
# lexer/lexer.h:61: 	while( *lexer->end && *lexer->end != '"' ){ lexer->end++; }
	.loc 10 61 15 discriminator 1
	mov	rax, QWORD PTR -64[rbp]	# tmp105, lexer
	mov	rax, QWORD PTR 8[rax]	# _3, lexer_25(D)->end
# lexer/lexer.h:61: 	while( *lexer->end && *lexer->end != '"' ){ lexer->end++; }
	.loc 10 61 9 discriminator 1
	movzx	eax, BYTE PTR [rax]	# _4, *_3
# lexer/lexer.h:61: 	while( *lexer->end && *lexer->end != '"' ){ lexer->end++; }
	.loc 10 61 21 discriminator 1
	test	al, al	# _4
	je	.L145	#,
# lexer/lexer.h:61: 	while( *lexer->end && *lexer->end != '"' ){ lexer->end++; }
	.loc 10 61 30 discriminator 2
	mov	rax, QWORD PTR -64[rbp]	# tmp106, lexer
	mov	rax, QWORD PTR 8[rax]	# _5, lexer_25(D)->end
# lexer/lexer.h:61: 	while( *lexer->end && *lexer->end != '"' ){ lexer->end++; }
	.loc 10 61 24 discriminator 2
	movzx	eax, BYTE PTR [rax]	# _6, *_5
# lexer/lexer.h:61: 	while( *lexer->end && *lexer->end != '"' ){ lexer->end++; }
	.loc 10 61 21 discriminator 2
	cmp	al, 34	# _6,
	jne	.L146	#,
.L145:
# lexer/lexer.h:62: 	if( *lexer->end != '"' ){ Throw( "Unterminated String\n" ); }
	.loc 10 62 12
	mov	rax, QWORD PTR -64[rbp]	# tmp107, lexer
	mov	rax, QWORD PTR 8[rax]	# _7, lexer_25(D)->end
# lexer/lexer.h:62: 	if( *lexer->end != '"' ){ Throw( "Unterminated String\n" ); }
	.loc 10 62 6
	movzx	eax, BYTE PTR [rax]	# _8, *_7
# lexer/lexer.h:62: 	if( *lexer->end != '"' ){ Throw( "Unterminated String\n" ); }
	.loc 10 62 4
	cmp	al, 34	# _8,
	je	.L147	#,
# lexer/lexer.h:62: 	if( *lexer->end != '"' ){ Throw( "Unterminated String\n" ); }
	.loc 10 62 28 discriminator 1
	lea	rax, .LC3[rip]	# tmp108,
	mov	rdi, rax	#, tmp108
	mov	eax, 0	#,
	call	Throw	#
.L147:
# lexer/lexer.h:63: 	Token token = { .type = TK_STR };
	.loc 10 63 8
	pxor	xmm0, xmm0	# tmp109
	movaps	XMMWORD PTR -32[rbp], xmm0	# token, tmp109
	movq	QWORD PTR -16[rbp], xmm0	# token, tmp109
	mov	DWORD PTR -32[rbp], 56	# token.type,
# lexer/lexer.h:64: 	U32 len = ( lexer->end - lexer->start ) - 1;
	.loc 10 64 19
	mov	rax, QWORD PTR -64[rbp]	# tmp110, lexer
	mov	rdx, QWORD PTR 8[rax]	# _9, lexer_25(D)->end
# lexer/lexer.h:64: 	U32 len = ( lexer->end - lexer->start ) - 1;
	.loc 10 64 32
	mov	rax, QWORD PTR -64[rbp]	# tmp111, lexer
	mov	rax, QWORD PTR [rax]	# _10, lexer_25(D)->start
# lexer/lexer.h:64: 	U32 len = ( lexer->end - lexer->start ) - 1;
	.loc 10 64 25
	sub	rdx, rax	# _11, _10
# lexer/lexer.h:64: 	U32 len = ( lexer->end - lexer->start ) - 1;
	.loc 10 64 42
	mov	eax, edx	# _12, _11
# lexer/lexer.h:64: 	U32 len = ( lexer->end - lexer->start ) - 1;
	.loc 10 64 6
	sub	eax, 1	# tmp112,
	mov	DWORD PTR -36[rbp], eax	# len, tmp112
# lexer/lexer.h:65: 	token.value.str = TablePut( lexer->interns, lexer->start + 1, len );
	.loc 10 65 51
	mov	rax, QWORD PTR -64[rbp]	# tmp113, lexer
	mov	rax, QWORD PTR [rax]	# _13, lexer_25(D)->start
# lexer/lexer.h:65: 	token.value.str = TablePut( lexer->interns, lexer->start + 1, len );
	.loc 10 65 20
	lea	rcx, 1[rax]	# _14,
	mov	rax, QWORD PTR -64[rbp]	# tmp114, lexer
	mov	rax, QWORD PTR 24[rax]	# _15, lexer_25(D)->interns
	mov	edx, DWORD PTR -36[rbp]	# tmp115, len
	mov	rsi, rcx	#, _14
	mov	rdi, rax	#, _15
	call	TablePut	#
# lexer/lexer.h:65: 	token.value.str = TablePut( lexer->interns, lexer->start + 1, len );
	.loc 10 65 18 discriminator 1
	mov	QWORD PTR -16[rbp], rax	# token.value.D.4160.str, _16
# lexer/lexer.h:66: 	lexer->end++;
	.loc 10 66 7
	mov	rax, QWORD PTR -64[rbp]	# tmp116, lexer
	mov	rax, QWORD PTR 8[rax]	# _17, lexer_25(D)->end
# lexer/lexer.h:66: 	lexer->end++;
	.loc 10 66 12
	lea	rdx, 1[rax]	# _18,
	mov	rax, QWORD PTR -64[rbp]	# tmp117, lexer
	mov	QWORD PTR 8[rax], rdx	# lexer_25(D)->end, _18
# lexer/lexer.h:67: 	lexer->col += len + 2;
	.loc 10 67 7
	mov	rax, QWORD PTR -64[rbp]	# tmp118, lexer
	mov	edx, DWORD PTR 20[rax]	# _19, lexer_25(D)->col
# lexer/lexer.h:67: 	lexer->col += len + 2;
	.loc 10 67 13
	mov	eax, DWORD PTR -36[rbp]	# tmp119, len
	add	eax, edx	# _20, _19
	lea	edx, 2[rax]	# _21,
	mov	rax, QWORD PTR -64[rbp]	# tmp120, lexer
	mov	DWORD PTR 20[rax], edx	# lexer_25(D)->col, _21
# lexer/lexer.h:68: 	return token;
	.loc 10 68 9
	mov	rcx, QWORD PTR -56[rbp]	# tmp121, .result_ptr
	mov	rax, QWORD PTR -32[rbp]	# tmp122, token
	mov	rdx, QWORD PTR -24[rbp]	#, token
	mov	QWORD PTR [rcx], rax	# <retval>, tmp122
	mov	QWORD PTR 8[rcx], rdx	# <retval>,
	mov	rax, QWORD PTR -16[rbp]	# tmp123, token
	mov	QWORD PTR 16[rcx], rax	# <retval>, tmp123
# lexer/lexer.h:69: }
	.loc 10 69 1
	mov	rax, QWORD PTR -56[rbp]	#, .result_ptr
	leave	
	.cfi_def_cfa 7, 8
	ret	
	.cfi_endproc
.LFE51:
	.size	LexStr, .-LexStr
	.type	LexComment, @function
LexComment:
.LFB52:
	.loc 10 72 1
	.cfi_startproc
	push	rbp	#
	.cfi_def_cfa_offset 16
	.cfi_offset 6, -16
	mov	rbp, rsp	#,
	.cfi_def_cfa_register 6
	mov	QWORD PTR -8[rbp], rdi	# lexer, lexer
# lexer/lexer.h:73: 	while( *lexer->end && *lexer->end != '\n' ){ lexer->end++; }
	.loc 10 73 7
	jmp	.L150	#
.L152:
# lexer/lexer.h:73: 	while( *lexer->end && *lexer->end != '\n' ){ lexer->end++; }
	.loc 10 73 52 discriminator 3
	mov	rax, QWORD PTR -8[rbp]	# tmp90, lexer
	mov	rax, QWORD PTR 8[rax]	# _1, lexer_11(D)->end
# lexer/lexer.h:73: 	while( *lexer->end && *lexer->end != '\n' ){ lexer->end++; }
	.loc 10 73 57 discriminator 3
	lea	rdx, 1[rax]	# _2,
	mov	rax, QWORD PTR -8[rbp]	# tmp91, lexer
	mov	QWORD PTR 8[rax], rdx	# lexer_11(D)->end, _2
.L150:
# lexer/lexer.h:73: 	while( *lexer->end && *lexer->end != '\n' ){ lexer->end++; }
	.loc 10 73 15 discriminator 1
	mov	rax, QWORD PTR -8[rbp]	# tmp92, lexer
	mov	rax, QWORD PTR 8[rax]	# _3, lexer_11(D)->end
# lexer/lexer.h:73: 	while( *lexer->end && *lexer->end != '\n' ){ lexer->end++; }
	.loc 10 73 9 discriminator 1
	movzx	eax, BYTE PTR [rax]	# _4, *_3
# lexer/lexer.h:73: 	while( *lexer->end && *lexer->end != '\n' ){ lexer->end++; }
	.loc 10 73 21 discriminator 1
	test	al, al	# _4
	je	.L151	#,
# lexer/lexer.h:73: 	while( *lexer->end && *lexer->end != '\n' ){ lexer->end++; }
	.loc 10 73 30 discriminator 2
	mov	rax, QWORD PTR -8[rbp]	# tmp93, lexer
	mov	rax, QWORD PTR 8[rax]	# _5, lexer_11(D)->end
# lexer/lexer.h:73: 	while( *lexer->end && *lexer->end != '\n' ){ lexer->end++; }
	.loc 10 73 24 discriminator 2
	movzx	eax, BYTE PTR [rax]	# _6, *_5
# lexer/lexer.h:73: 	while( *lexer->end && *lexer->end != '\n' ){ lexer->end++; }
	.loc 10 73 21 discriminator 2
	cmp	al, 10	# _6,
	jne	.L152	#,
.L151:
# lexer/lexer.h:74: 	lexer->line++;
	.loc 10 74 7
	mov	rax, QWORD PTR -8[rbp]	# tmp94, lexer
	mov	eax, DWORD PTR 16[rax]	# _7, lexer_11(D)->line
# lexer/lexer.h:74: 	lexer->line++;
	.loc 10 74 13
	lea	edx, 1[rax]	# _8,
	mov	rax, QWORD PTR -8[rbp]	# tmp95, lexer
	mov	DWORD PTR 16[rax], edx	# lexer_11(D)->line, _8
# lexer/lexer.h:75: 	lexer->col = 0;
	.loc 10 75 13
	mov	rax, QWORD PTR -8[rbp]	# tmp96, lexer
	mov	DWORD PTR 20[rax], 0	# lexer_11(D)->col,
# lexer/lexer.h:76: }
	.loc 10 76 1
	nop	
	pop	rbp	#
	.cfi_def_cfa 7, 8
	ret	
	.cfi_endproc
.LFE52:
	.size	LexComment, .-LexComment
	.type	LexMod, @function
LexMod:
.LFB53:
	.loc 10 79 1
	.cfi_startproc
	push	rbp	#
	.cfi_def_cfa_offset 16
	.cfi_offset 6, -16
	mov	rbp, rsp	#,
	.cfi_def_cfa_register 6
	sub	rsp, 32	#,
	mov	QWORD PTR -24[rbp], rdi	# .result_ptr, .result_ptr
	mov	QWORD PTR -32[rbp], rsi	# lexer, lexer
# lexer/lexer.h:79: {	/* % %= */
	.loc 10 79 1
	mov	rax, QWORD PTR fs:40	# tmp90, MEM[(<address-space-1> long unsigned int *)40B]
	mov	QWORD PTR -8[rbp], rax	# D.6529, tmp90
	xor	eax, eax	# tmp90
# lexer/lexer.h:80: 	U8 off = ( *lexer->end == '=' );
	.loc 10 80 19
	mov	rax, QWORD PTR -32[rbp]	# tmp87, lexer
	mov	rax, QWORD PTR 8[rax]	# _1, lexer_7(D)->end
# lexer/lexer.h:80: 	U8 off = ( *lexer->end == '=' );
	.loc 10 80 13
	movzx	eax, BYTE PTR [rax]	# _2, *_1
# lexer/lexer.h:80: 	U8 off = ( *lexer->end == '=' );
	.loc 10 80 25
	cmp	al, 61	# _2,
	sete	al	#, _3
# lexer/lexer.h:80: 	U8 off = ( *lexer->end == '=' );
	.loc 10 80 5
	mov	BYTE PTR -9[rbp], al	# off, _3
# lexer/lexer.h:81: 	return LexSet( lexer, TK_MOD, off, off );
	.loc 10 81 9
	movzx	ecx, BYTE PTR -9[rbp]	# _4, off
	movzx	edx, BYTE PTR -9[rbp]	# _5, off
	mov	rax, QWORD PTR -24[rbp]	# tmp88, .result_ptr
	mov	rsi, QWORD PTR -32[rbp]	# tmp89, lexer
	mov	r8d, ecx	#, _4
	mov	ecx, edx	#, _5
	mov	edx, 16	#,
	mov	rdi, rax	#, tmp88
	call	LexSet	#
# lexer/lexer.h:82: }
	.loc 10 82 1
	mov	rax, QWORD PTR -8[rbp]	# tmp91, D.6529
	sub	rax, QWORD PTR fs:40	# tmp91, MEM[(<address-space-1> long unsigned int *)40B]
	je	.L155	#,
	call	__stack_chk_fail@PLT	#
.L155:
	mov	rax, QWORD PTR -24[rbp]	#, .result_ptr
	leave	
	.cfi_def_cfa 7, 8
	ret	
	.cfi_endproc
.LFE53:
	.size	LexMod, .-LexMod
	.type	LexBand, @function
LexBand:
.LFB54:
	.loc 10 85 1
	.cfi_startproc
	push	rbp	#
	.cfi_def_cfa_offset 16
	.cfi_offset 6, -16
	mov	rbp, rsp	#,
	.cfi_def_cfa_register 6
	sub	rsp, 32	#,
	mov	QWORD PTR -24[rbp], rdi	# .result_ptr, .result_ptr
	mov	QWORD PTR -32[rbp], rsi	# lexer, lexer
# lexer/lexer.h:85: {	/* & &= && */
	.loc 10 85 1
	mov	rax, QWORD PTR fs:40	# tmp97, MEM[(<address-space-1> long unsigned int *)40B]
	mov	QWORD PTR -8[rbp], rax	# D.6532, tmp97
	xor	eax, eax	# tmp97
# lexer/lexer.h:86: 	U8 off = ( *lexer->end == '=' ) + ( *lexer->end == '&' ) * 2;
	.loc 10 86 19
	mov	rax, QWORD PTR -32[rbp]	# tmp92, lexer
	mov	rax, QWORD PTR 8[rax]	# _1, lexer_12(D)->end
# lexer/lexer.h:86: 	U8 off = ( *lexer->end == '=' ) + ( *lexer->end == '&' ) * 2;
	.loc 10 86 13
	movzx	eax, BYTE PTR [rax]	# _2, *_1
# lexer/lexer.h:86: 	U8 off = ( *lexer->end == '=' ) + ( *lexer->end == '&' ) * 2;
	.loc 10 86 25
	cmp	al, 61	# _2,
	sete	al	#, _3
	mov	edx, eax	# _4, _3
# lexer/lexer.h:86: 	U8 off = ( *lexer->end == '=' ) + ( *lexer->end == '&' ) * 2;
	.loc 10 86 44
	mov	rax, QWORD PTR -32[rbp]	# tmp93, lexer
	mov	rax, QWORD PTR 8[rax]	# _5, lexer_12(D)->end
# lexer/lexer.h:86: 	U8 off = ( *lexer->end == '=' ) + ( *lexer->end == '&' ) * 2;
	.loc 10 86 38
	movzx	eax, BYTE PTR [rax]	# _6, *_5
# lexer/lexer.h:86: 	U8 off = ( *lexer->end == '=' ) + ( *lexer->end == '&' ) * 2;
	.loc 10 86 34
	cmp	al, 38	# _6,
	jne	.L157	#,
# lexer/lexer.h:86: 	U8 off = ( *lexer->end == '=' ) + ( *lexer->end == '&' ) * 2;
	.loc 10 86 34 is_stmt 0 discriminator 1
	mov	eax, 2	# iftmp.3_10,
	jmp	.L158	#
.L157:
# lexer/lexer.h:86: 	U8 off = ( *lexer->end == '=' ) + ( *lexer->end == '&' ) * 2;
	.loc 10 86 34 discriminator 2
	mov	eax, 0	# iftmp.3_10,
.L158:
# lexer/lexer.h:86: 	U8 off = ( *lexer->end == '=' ) + ( *lexer->end == '&' ) * 2;
	.loc 10 86 5 is_stmt 1 discriminator 4
	add	eax, edx	# tmp94, _4
	mov	BYTE PTR -9[rbp], al	# off, tmp94
# lexer/lexer.h:87: 	return LexSet( lexer, TK_BAND, off, off != 0 );
	.loc 10 87 9
	cmp	BYTE PTR -9[rbp], 0	# off,
	setne	al	#, _7
	movzx	ecx, al	# _8, _7
	movzx	edx, BYTE PTR -9[rbp]	# _9, off
	mov	rax, QWORD PTR -24[rbp]	# tmp95, .result_ptr
	mov	rsi, QWORD PTR -32[rbp]	# tmp96, lexer
	mov	r8d, ecx	#, _8
	mov	ecx, edx	#, _9
	mov	edx, 18	#,
	mov	rdi, rax	#, tmp95
	call	LexSet	#
# lexer/lexer.h:88: }
	.loc 10 88 1
	mov	rax, QWORD PTR -8[rbp]	# tmp98, D.6532
	sub	rax, QWORD PTR fs:40	# tmp98, MEM[(<address-space-1> long unsigned int *)40B]
	je	.L160	#,
	call	__stack_chk_fail@PLT	#
.L160:
	mov	rax, QWORD PTR -24[rbp]	#, .result_ptr
	leave	
	.cfi_def_cfa 7, 8
	ret	
	.cfi_endproc
.LFE54:
	.size	LexBand, .-LexBand
	.type	LexLp, @function
LexLp:
.LFB55:
	.loc 10 90 33
	.cfi_startproc
	push	rbp	#
	.cfi_def_cfa_offset 16
	.cfi_offset 6, -16
	mov	rbp, rsp	#,
	.cfi_def_cfa_register 6
	sub	rsp, 32	#,
	mov	QWORD PTR -24[rbp], rdi	# .result_ptr, .result_ptr
	mov	QWORD PTR -32[rbp], rsi	# lexer, lexer
# lexer/lexer.h:90: STIL Token LexLp( Lexer *lexer ){ return LexSet( lexer, TK_LP, 0, 0 ); }
	.loc 10 90 33
	mov	rax, QWORD PTR fs:40	# tmp84, MEM[(<address-space-1> long unsigned int *)40B]
	mov	QWORD PTR -8[rbp], rax	# D.6535, tmp84
	xor	eax, eax	# tmp84
# lexer/lexer.h:90: STIL Token LexLp( Lexer *lexer ){ return LexSet( lexer, TK_LP, 0, 0 ); }
	.loc 10 90 42
	mov	rax, QWORD PTR -24[rbp]	# tmp82, .result_ptr
	mov	rsi, QWORD PTR -32[rbp]	# tmp83, lexer
	mov	r8d, 0	#,
	mov	ecx, 0	#,
	mov	edx, 36	#,
	mov	rdi, rax	#, tmp82
	call	LexSet	#
# lexer/lexer.h:90: STIL Token LexLp( Lexer *lexer ){ return LexSet( lexer, TK_LP, 0, 0 ); }
	.loc 10 90 72
	mov	rax, QWORD PTR -8[rbp]	# tmp85, D.6535
	sub	rax, QWORD PTR fs:40	# tmp85, MEM[(<address-space-1> long unsigned int *)40B]
	je	.L163	#,
	call	__stack_chk_fail@PLT	#
.L163:
	mov	rax, QWORD PTR -24[rbp]	#, .result_ptr
	leave	
	.cfi_def_cfa 7, 8
	ret	
	.cfi_endproc
.LFE55:
	.size	LexLp, .-LexLp
	.type	LexRp, @function
LexRp:
.LFB56:
	.loc 10 91 33
	.cfi_startproc
	push	rbp	#
	.cfi_def_cfa_offset 16
	.cfi_offset 6, -16
	mov	rbp, rsp	#,
	.cfi_def_cfa_register 6
	sub	rsp, 32	#,
	mov	QWORD PTR -24[rbp], rdi	# .result_ptr, .result_ptr
	mov	QWORD PTR -32[rbp], rsi	# lexer, lexer
# lexer/lexer.h:91: STIL Token LexRp( Lexer *lexer ){ return LexSet( lexer, TK_RP, 0, 0 ); }
	.loc 10 91 33
	mov	rax, QWORD PTR fs:40	# tmp84, MEM[(<address-space-1> long unsigned int *)40B]
	mov	QWORD PTR -8[rbp], rax	# D.6538, tmp84
	xor	eax, eax	# tmp84
# lexer/lexer.h:91: STIL Token LexRp( Lexer *lexer ){ return LexSet( lexer, TK_RP, 0, 0 ); }
	.loc 10 91 42
	mov	rax, QWORD PTR -24[rbp]	# tmp82, .result_ptr
	mov	rsi, QWORD PTR -32[rbp]	# tmp83, lexer
	mov	r8d, 0	#,
	mov	ecx, 0	#,
	mov	edx, 37	#,
	mov	rdi, rax	#, tmp82
	call	LexSet	#
# lexer/lexer.h:91: STIL Token LexRp( Lexer *lexer ){ return LexSet( lexer, TK_RP, 0, 0 ); }
	.loc 10 91 72
	mov	rax, QWORD PTR -8[rbp]	# tmp85, D.6538
	sub	rax, QWORD PTR fs:40	# tmp85, MEM[(<address-space-1> long unsigned int *)40B]
	je	.L166	#,
	call	__stack_chk_fail@PLT	#
.L166:
	mov	rax, QWORD PTR -24[rbp]	#, .result_ptr
	leave	
	.cfi_def_cfa 7, 8
	ret	
	.cfi_endproc
.LFE56:
	.size	LexRp, .-LexRp
	.type	LexMul, @function
LexMul:
.LFB57:
	.loc 10 94 1
	.cfi_startproc
	push	rbp	#
	.cfi_def_cfa_offset 16
	.cfi_offset 6, -16
	mov	rbp, rsp	#,
	.cfi_def_cfa_register 6
	sub	rsp, 32	#,
	mov	QWORD PTR -24[rbp], rdi	# .result_ptr, .result_ptr
	mov	QWORD PTR -32[rbp], rsi	# lexer, lexer
# lexer/lexer.h:94: {	/* * *= ** **= */
	.loc 10 94 1
	mov	rax, QWORD PTR fs:40	# tmp108, MEM[(<address-space-1> long unsigned int *)40B]
	mov	QWORD PTR -8[rbp], rax	# D.6541, tmp108
	xor	eax, eax	# tmp108
# lexer/lexer.h:95: 	U8 off = ( *lexer->end == '=' )
	.loc 10 95 19
	mov	rax, QWORD PTR -32[rbp]	# tmp102, lexer
	mov	rax, QWORD PTR 8[rax]	# _1, lexer_22(D)->end
# lexer/lexer.h:95: 	U8 off = ( *lexer->end == '=' )
	.loc 10 95 13
	movzx	eax, BYTE PTR [rax]	# _2, *_1
# lexer/lexer.h:95: 	U8 off = ( *lexer->end == '=' )
	.loc 10 95 25
	cmp	al, 61	# _2,
	sete	al	#, _3
	mov	edx, eax	# _4, _3
# lexer/lexer.h:96: 		+ ( *lexer->end == '*' ) * 2
	.loc 10 96 13
	mov	rax, QWORD PTR -32[rbp]	# tmp103, lexer
	mov	rax, QWORD PTR 8[rax]	# _5, lexer_22(D)->end
# lexer/lexer.h:96: 		+ ( *lexer->end == '*' ) * 2
	.loc 10 96 7
	movzx	eax, BYTE PTR [rax]	# _6, *_5
# lexer/lexer.h:96: 		+ ( *lexer->end == '*' ) * 2
	.loc 10 96 3
	cmp	al, 42	# _6,
	jne	.L168	#,
# lexer/lexer.h:96: 		+ ( *lexer->end == '*' ) * 2
	.loc 10 96 3 is_stmt 0 discriminator 1
	mov	eax, 2	# iftmp.4_20,
	jmp	.L169	#
.L168:
# lexer/lexer.h:96: 		+ ( *lexer->end == '*' ) * 2
	.loc 10 96 3 discriminator 2
	mov	eax, 0	# iftmp.4_20,
.L169:
# lexer/lexer.h:96: 		+ ( *lexer->end == '*' ) * 2
	.loc 10 96 3 discriminator 4
	add	edx, eax	# _7, iftmp.4_20
# lexer/lexer.h:97: 		+ ( *( lexer->end + 1 ) == '=' );
	.loc 10 97 15 is_stmt 1
	mov	rax, QWORD PTR -32[rbp]	# tmp104, lexer
	mov	rax, QWORD PTR 8[rax]	# _8, lexer_22(D)->end
# lexer/lexer.h:97: 		+ ( *( lexer->end + 1 ) == '=' );
	.loc 10 97 21
	add	rax, 1	# _9,
# lexer/lexer.h:97: 		+ ( *( lexer->end + 1 ) == '=' );
	.loc 10 97 7
	movzx	eax, BYTE PTR [rax]	# _10, *_9
# lexer/lexer.h:97: 		+ ( *( lexer->end + 1 ) == '=' );
	.loc 10 97 27
	cmp	al, 61	# _10,
	sete	al	#, _11
# lexer/lexer.h:95: 	U8 off = ( *lexer->end == '=' )
	.loc 10 95 5
	add	eax, edx	# tmp105, _7
	mov	BYTE PTR -9[rbp], al	# off, tmp105
# lexer/lexer.h:98: 	return LexSet( lexer, TK_MUL, off, ( off != 0 ) + off > 2 );
	.loc 10 98 43
	cmp	BYTE PTR -9[rbp], 0	# off,
	setne	al	#, _13
	movzx	edx, al	# _14, _13
# lexer/lexer.h:98: 	return LexSet( lexer, TK_MUL, off, ( off != 0 ) + off > 2 );
	.loc 10 98 50
	movzx	eax, BYTE PTR -9[rbp]	# _15, off
	add	eax, edx	# _16, _14
# lexer/lexer.h:98: 	return LexSet( lexer, TK_MUL, off, ( off != 0 ) + off > 2 );
	.loc 10 98 9
	cmp	eax, 2	# _16,
	setg	al	#, _17
	movzx	ecx, al	# _18, _17
	movzx	edx, BYTE PTR -9[rbp]	# _19, off
	mov	rax, QWORD PTR -24[rbp]	# tmp106, .result_ptr
	mov	rsi, QWORD PTR -32[rbp]	# tmp107, lexer
	mov	r8d, ecx	#, _18
	mov	ecx, edx	#, _19
	mov	edx, 10	#,
	mov	rdi, rax	#, tmp106
	call	LexSet	#
# lexer/lexer.h:99: }
	.loc 10 99 1
	mov	rax, QWORD PTR -8[rbp]	# tmp109, D.6541
	sub	rax, QWORD PTR fs:40	# tmp109, MEM[(<address-space-1> long unsigned int *)40B]
	je	.L171	#,
	call	__stack_chk_fail@PLT	#
.L171:
	mov	rax, QWORD PTR -24[rbp]	#, .result_ptr
	leave	
	.cfi_def_cfa 7, 8
	ret	
	.cfi_endproc
.LFE57:
	.size	LexMul, .-LexMul
	.type	LexAdd, @function
LexAdd:
.LFB58:
	.loc 10 102 1
	.cfi_startproc
	push	rbp	#
	.cfi_def_cfa_offset 16
	.cfi_offset 6, -16
	mov	rbp, rsp	#,
	.cfi_def_cfa_register 6
	sub	rsp, 32	#,
	mov	QWORD PTR -24[rbp], rdi	# .result_ptr, .result_ptr
	mov	QWORD PTR -32[rbp], rsi	# lexer, lexer
# lexer/lexer.h:102: {	/* +, +=, ++ */
	.loc 10 102 1
	mov	rax, QWORD PTR fs:40	# tmp97, MEM[(<address-space-1> long unsigned int *)40B]
	mov	QWORD PTR -8[rbp], rax	# D.6544, tmp97
	xor	eax, eax	# tmp97
# lexer/lexer.h:103: 	U8 off = ( *lexer->end == '=' ) + ( *lexer->end == '+' ) * 2;
	.loc 10 103 19
	mov	rax, QWORD PTR -32[rbp]	# tmp92, lexer
	mov	rax, QWORD PTR 8[rax]	# _1, lexer_12(D)->end
# lexer/lexer.h:103: 	U8 off = ( *lexer->end == '=' ) + ( *lexer->end == '+' ) * 2;
	.loc 10 103 13
	movzx	eax, BYTE PTR [rax]	# _2, *_1
# lexer/lexer.h:103: 	U8 off = ( *lexer->end == '=' ) + ( *lexer->end == '+' ) * 2;
	.loc 10 103 25
	cmp	al, 61	# _2,
	sete	al	#, _3
	mov	edx, eax	# _4, _3
# lexer/lexer.h:103: 	U8 off = ( *lexer->end == '=' ) + ( *lexer->end == '+' ) * 2;
	.loc 10 103 44
	mov	rax, QWORD PTR -32[rbp]	# tmp93, lexer
	mov	rax, QWORD PTR 8[rax]	# _5, lexer_12(D)->end
# lexer/lexer.h:103: 	U8 off = ( *lexer->end == '=' ) + ( *lexer->end == '+' ) * 2;
	.loc 10 103 38
	movzx	eax, BYTE PTR [rax]	# _6, *_5
# lexer/lexer.h:103: 	U8 off = ( *lexer->end == '=' ) + ( *lexer->end == '+' ) * 2;
	.loc 10 103 34
	cmp	al, 43	# _6,
	jne	.L173	#,
# lexer/lexer.h:103: 	U8 off = ( *lexer->end == '=' ) + ( *lexer->end == '+' ) * 2;
	.loc 10 103 34 is_stmt 0 discriminator 1
	mov	eax, 2	# iftmp.5_10,
	jmp	.L174	#
.L173:
# lexer/lexer.h:103: 	U8 off = ( *lexer->end == '=' ) + ( *lexer->end == '+' ) * 2;
	.loc 10 103 34 discriminator 2
	mov	eax, 0	# iftmp.5_10,
.L174:
# lexer/lexer.h:103: 	U8 off = ( *lexer->end == '=' ) + ( *lexer->end == '+' ) * 2;
	.loc 10 103 5 is_stmt 1 discriminator 4
	add	eax, edx	# tmp94, _4
	mov	BYTE PTR -9[rbp], al	# off, tmp94
# lexer/lexer.h:104: 	return LexSet( lexer, TK_ADD, off, off != 0 );
	.loc 10 104 9
	cmp	BYTE PTR -9[rbp], 0	# off,
	setne	al	#, _7
	movzx	ecx, al	# _8, _7
	movzx	edx, BYTE PTR -9[rbp]	# _9, off
	mov	rax, QWORD PTR -24[rbp]	# tmp95, .result_ptr
	mov	rsi, QWORD PTR -32[rbp]	# tmp96, lexer
	mov	r8d, ecx	#, _8
	mov	ecx, edx	#, _9
	mov	edx, 4	#,
	mov	rdi, rax	#, tmp95
	call	LexSet	#
# lexer/lexer.h:105: }
	.loc 10 105 1
	mov	rax, QWORD PTR -8[rbp]	# tmp98, D.6544
	sub	rax, QWORD PTR fs:40	# tmp98, MEM[(<address-space-1> long unsigned int *)40B]
	je	.L176	#,
	call	__stack_chk_fail@PLT	#
.L176:
	mov	rax, QWORD PTR -24[rbp]	#, .result_ptr
	leave	
	.cfi_def_cfa 7, 8
	ret	
	.cfi_endproc
.LFE58:
	.size	LexAdd, .-LexAdd
	.type	LexComma, @function
LexComma:
.LFB59:
	.loc 10 107 36
	.cfi_startproc
	push	rbp	#
	.cfi_def_cfa_offset 16
	.cfi_offset 6, -16
	mov	rbp, rsp	#,
	.cfi_def_cfa_register 6
	sub	rsp, 32	#,
	mov	QWORD PTR -24[rbp], rdi	# .result_ptr, .result_ptr
	mov	QWORD PTR -32[rbp], rsi	# lexer, lexer
# lexer/lexer.h:107: STIL Token LexComma( Lexer *lexer ){ return LexSet( lexer, TK_COMMA, 0, 0 ); }
	.loc 10 107 36
	mov	rax, QWORD PTR fs:40	# tmp84, MEM[(<address-space-1> long unsigned int *)40B]
	mov	QWORD PTR -8[rbp], rax	# D.6547, tmp84
	xor	eax, eax	# tmp84
# lexer/lexer.h:107: STIL Token LexComma( Lexer *lexer ){ return LexSet( lexer, TK_COMMA, 0, 0 ); }
	.loc 10 107 45
	mov	rax, QWORD PTR -24[rbp]	# tmp82, .result_ptr
	mov	rsi, QWORD PTR -32[rbp]	# tmp83, lexer
	mov	r8d, 0	#,
	mov	ecx, 0	#,
	mov	edx, 52	#,
	mov	rdi, rax	#, tmp82
	call	LexSet	#
# lexer/lexer.h:107: STIL Token LexComma( Lexer *lexer ){ return LexSet( lexer, TK_COMMA, 0, 0 ); }
	.loc 10 107 78
	mov	rax, QWORD PTR -8[rbp]	# tmp85, D.6547
	sub	rax, QWORD PTR fs:40	# tmp85, MEM[(<address-space-1> long unsigned int *)40B]
	je	.L179	#,
	call	__stack_chk_fail@PLT	#
.L179:
	mov	rax, QWORD PTR -24[rbp]	#, .result_ptr
	leave	
	.cfi_def_cfa 7, 8
	ret	
	.cfi_endproc
.LFE59:
	.size	LexComma, .-LexComma
	.type	LexSub, @function
LexSub:
.LFB60:
	.loc 10 110 1
	.cfi_startproc
	push	rbp	#
	.cfi_def_cfa_offset 16
	.cfi_offset 6, -16
	mov	rbp, rsp	#,
	.cfi_def_cfa_register 6
	sub	rsp, 32	#,
	mov	QWORD PTR -24[rbp], rdi	# .result_ptr, .result_ptr
	mov	QWORD PTR -32[rbp], rsi	# lexer, lexer
# lexer/lexer.h:110: {	/* -, -=, -- */
	.loc 10 110 1
	mov	rax, QWORD PTR fs:40	# tmp97, MEM[(<address-space-1> long unsigned int *)40B]
	mov	QWORD PTR -8[rbp], rax	# D.6550, tmp97
	xor	eax, eax	# tmp97
# lexer/lexer.h:111: 	U8 off = ( *lexer->end == '=' ) + ( *lexer->end == '-' ) * 2;
	.loc 10 111 19
	mov	rax, QWORD PTR -32[rbp]	# tmp92, lexer
	mov	rax, QWORD PTR 8[rax]	# _1, lexer_12(D)->end
# lexer/lexer.h:111: 	U8 off = ( *lexer->end == '=' ) + ( *lexer->end == '-' ) * 2;
	.loc 10 111 13
	movzx	eax, BYTE PTR [rax]	# _2, *_1
# lexer/lexer.h:111: 	U8 off = ( *lexer->end == '=' ) + ( *lexer->end == '-' ) * 2;
	.loc 10 111 25
	cmp	al, 61	# _2,
	sete	al	#, _3
	mov	edx, eax	# _4, _3
# lexer/lexer.h:111: 	U8 off = ( *lexer->end == '=' ) + ( *lexer->end == '-' ) * 2;
	.loc 10 111 44
	mov	rax, QWORD PTR -32[rbp]	# tmp93, lexer
	mov	rax, QWORD PTR 8[rax]	# _5, lexer_12(D)->end
# lexer/lexer.h:111: 	U8 off = ( *lexer->end == '=' ) + ( *lexer->end == '-' ) * 2;
	.loc 10 111 38
	movzx	eax, BYTE PTR [rax]	# _6, *_5
# lexer/lexer.h:111: 	U8 off = ( *lexer->end == '=' ) + ( *lexer->end == '-' ) * 2;
	.loc 10 111 34
	cmp	al, 45	# _6,
	jne	.L181	#,
# lexer/lexer.h:111: 	U8 off = ( *lexer->end == '=' ) + ( *lexer->end == '-' ) * 2;
	.loc 10 111 34 is_stmt 0 discriminator 1
	mov	eax, 2	# iftmp.6_10,
	jmp	.L182	#
.L181:
# lexer/lexer.h:111: 	U8 off = ( *lexer->end == '=' ) + ( *lexer->end == '-' ) * 2;
	.loc 10 111 34 discriminator 2
	mov	eax, 0	# iftmp.6_10,
.L182:
# lexer/lexer.h:111: 	U8 off = ( *lexer->end == '=' ) + ( *lexer->end == '-' ) * 2;
	.loc 10 111 5 is_stmt 1 discriminator 4
	add	eax, edx	# tmp94, _4
	mov	BYTE PTR -9[rbp], al	# off, tmp94
# lexer/lexer.h:112: 	return LexSet( lexer, TK_SUB, off, off != 0 );
	.loc 10 112 9
	cmp	BYTE PTR -9[rbp], 0	# off,
	setne	al	#, _7
	movzx	ecx, al	# _8, _7
	movzx	edx, BYTE PTR -9[rbp]	# _9, off
	mov	rax, QWORD PTR -24[rbp]	# tmp95, .result_ptr
	mov	rsi, QWORD PTR -32[rbp]	# tmp96, lexer
	mov	r8d, ecx	#, _8
	mov	ecx, edx	#, _9
	mov	edx, 7	#,
	mov	rdi, rax	#, tmp95
	call	LexSet	#
# lexer/lexer.h:113: }
	.loc 10 113 1
	mov	rax, QWORD PTR -8[rbp]	# tmp98, D.6550
	sub	rax, QWORD PTR fs:40	# tmp98, MEM[(<address-space-1> long unsigned int *)40B]
	je	.L184	#,
	call	__stack_chk_fail@PLT	#
.L184:
	mov	rax, QWORD PTR -24[rbp]	#, .result_ptr
	leave	
	.cfi_def_cfa 7, 8
	ret	
	.cfi_endproc
.LFE60:
	.size	LexSub, .-LexSub
	.type	LexDot, @function
LexDot:
.LFB61:
	.loc 10 115 34
	.cfi_startproc
	push	rbp	#
	.cfi_def_cfa_offset 16
	.cfi_offset 6, -16
	mov	rbp, rsp	#,
	.cfi_def_cfa_register 6
	sub	rsp, 32	#,
	mov	QWORD PTR -24[rbp], rdi	# .result_ptr, .result_ptr
	mov	QWORD PTR -32[rbp], rsi	# lexer, lexer
# lexer/lexer.h:115: STIL Token LexDot( Lexer *lexer ){ return LexSet( lexer, TK_DOT, 0, 0 ); }
	.loc 10 115 34
	mov	rax, QWORD PTR fs:40	# tmp84, MEM[(<address-space-1> long unsigned int *)40B]
	mov	QWORD PTR -8[rbp], rax	# D.6553, tmp84
	xor	eax, eax	# tmp84
# lexer/lexer.h:115: STIL Token LexDot( Lexer *lexer ){ return LexSet( lexer, TK_DOT, 0, 0 ); }
	.loc 10 115 43
	mov	rax, QWORD PTR -24[rbp]	# tmp82, .result_ptr
	mov	rsi, QWORD PTR -32[rbp]	# tmp83, lexer
	mov	r8d, 0	#,
	mov	ecx, 0	#,
	mov	edx, 42	#,
	mov	rdi, rax	#, tmp82
	call	LexSet	#
# lexer/lexer.h:115: STIL Token LexDot( Lexer *lexer ){ return LexSet( lexer, TK_DOT, 0, 0 ); }
	.loc 10 115 74
	mov	rax, QWORD PTR -8[rbp]	# tmp85, D.6553
	sub	rax, QWORD PTR fs:40	# tmp85, MEM[(<address-space-1> long unsigned int *)40B]
	je	.L187	#,
	call	__stack_chk_fail@PLT	#
.L187:
	mov	rax, QWORD PTR -24[rbp]	#, .result_ptr
	leave	
	.cfi_def_cfa 7, 8
	ret	
	.cfi_endproc
.LFE61:
	.size	LexDot, .-LexDot
	.type	LexDiv, @function
LexDiv:
.LFB62:
	.loc 10 118 1
	.cfi_startproc
	push	rbp	#
	.cfi_def_cfa_offset 16
	.cfi_offset 6, -16
	mov	rbp, rsp	#,
	.cfi_def_cfa_register 6
	sub	rsp, 32	#,
	mov	QWORD PTR -24[rbp], rdi	# .result_ptr, .result_ptr
	mov	QWORD PTR -32[rbp], rsi	# lexer, lexer
# lexer/lexer.h:118: {	/* /, /= */
	.loc 10 118 1
	mov	rax, QWORD PTR fs:40	# tmp90, MEM[(<address-space-1> long unsigned int *)40B]
	mov	QWORD PTR -8[rbp], rax	# D.6556, tmp90
	xor	eax, eax	# tmp90
# lexer/lexer.h:119: 	U8 off = ( *lexer->end == '=' );
	.loc 10 119 19
	mov	rax, QWORD PTR -32[rbp]	# tmp87, lexer
	mov	rax, QWORD PTR 8[rax]	# _1, lexer_7(D)->end
# lexer/lexer.h:119: 	U8 off = ( *lexer->end == '=' );
	.loc 10 119 13
	movzx	eax, BYTE PTR [rax]	# _2, *_1
# lexer/lexer.h:119: 	U8 off = ( *lexer->end == '=' );
	.loc 10 119 25
	cmp	al, 61	# _2,
	sete	al	#, _3
# lexer/lexer.h:119: 	U8 off = ( *lexer->end == '=' );
	.loc 10 119 5
	mov	BYTE PTR -9[rbp], al	# off, _3
# lexer/lexer.h:120: 	return LexSet( lexer, TK_DIV, off, off );
	.loc 10 120 9
	movzx	ecx, BYTE PTR -9[rbp]	# _4, off
	movzx	edx, BYTE PTR -9[rbp]	# _5, off
	mov	rax, QWORD PTR -24[rbp]	# tmp88, .result_ptr
	mov	rsi, QWORD PTR -32[rbp]	# tmp89, lexer
	mov	r8d, ecx	#, _4
	mov	ecx, edx	#, _5
	mov	edx, 14	#,
	mov	rdi, rax	#, tmp88
	call	LexSet	#
# lexer/lexer.h:121: }
	.loc 10 121 1
	mov	rax, QWORD PTR -8[rbp]	# tmp91, D.6556
	sub	rax, QWORD PTR fs:40	# tmp91, MEM[(<address-space-1> long unsigned int *)40B]
	je	.L190	#,
	call	__stack_chk_fail@PLT	#
.L190:
	mov	rax, QWORD PTR -24[rbp]	#, .result_ptr
	leave	
	.cfi_def_cfa 7, 8
	ret	
	.cfi_endproc
.LFE62:
	.size	LexDiv, .-LexDiv
	.section	.rodata
.LC4:
	.string	"Malformed Float\n"
	.text
	.type	LexNum, @function
LexNum:
.LFB63:
	.loc 10 124 1
	.cfi_startproc
	push	rbp	#
	.cfi_def_cfa_offset 16
	.cfi_offset 6, -16
	mov	rbp, rsp	#,
	.cfi_def_cfa_register 6
	sub	rsp, 64	#,
	mov	QWORD PTR -40[rbp], rdi	# .result_ptr, .result_ptr
	mov	QWORD PTR -48[rbp], rsi	# lexer, lexer
	mov	QWORD PTR -56[rbp], rdx	# NUM, NUM
	mov	QWORD PTR -64[rbp], rcx	# ascii, ascii
# lexer/lexer.h:125: 	Token token = { .type = TK_I64 };
	.loc 10 125 8
	pxor	xmm0, xmm0	# tmp114
	movaps	XMMWORD PTR -32[rbp], xmm0	# token, tmp114
	movq	QWORD PTR -16[rbp], xmm0	# token, tmp114
	mov	DWORD PTR -32[rbp], 54	# token.type,
# lexer/lexer.h:126: 	while( ascii[ *( U8* )lexer->end ] == NUM ){ lexer->end++; }
	.loc 10 126 7
	jmp	.L192	#
.L193:
# lexer/lexer.h:126: 	while( ascii[ *( U8* )lexer->end ] == NUM ){ lexer->end++; }
	.loc 10 126 52 discriminator 2
	mov	rax, QWORD PTR -48[rbp]	# tmp115, lexer
	mov	rax, QWORD PTR 8[rax]	# _1, lexer_40(D)->end
# lexer/lexer.h:126: 	while( ascii[ *( U8* )lexer->end ] == NUM ){ lexer->end++; }
	.loc 10 126 57 discriminator 2
	lea	rdx, 1[rax]	# _2,
	mov	rax, QWORD PTR -48[rbp]	# tmp116, lexer
	mov	QWORD PTR 8[rax], rdx	# lexer_40(D)->end, _2
.L192:
# lexer/lexer.h:126: 	while( ascii[ *( U8* )lexer->end ] == NUM ){ lexer->end++; }
	.loc 10 126 29 discriminator 1
	mov	rax, QWORD PTR -48[rbp]	# tmp117, lexer
	mov	rax, QWORD PTR 8[rax]	# _3, lexer_40(D)->end
# lexer/lexer.h:126: 	while( ascii[ *( U8* )lexer->end ] == NUM ){ lexer->end++; }
	.loc 10 126 16 discriminator 1
	movzx	eax, BYTE PTR [rax]	# _4, MEM[(U8 *)_3]
	movzx	eax, al	# _5, _4
# lexer/lexer.h:126: 	while( ascii[ *( U8* )lexer->end ] == NUM ){ lexer->end++; }
	.loc 10 126 14 discriminator 1
	lea	rdx, 0[0+rax*8]	# _6,
	mov	rax, QWORD PTR -64[rbp]	# tmp118, ascii
	add	rax, rdx	# _7, _6
	mov	rax, QWORD PTR [rax]	# _8, *_7
# lexer/lexer.h:126: 	while( ascii[ *( U8* )lexer->end ] == NUM ){ lexer->end++; }
	.loc 10 126 37 discriminator 1
	cmp	QWORD PTR -56[rbp], rax	# NUM, _8
	je	.L193	#,
# lexer/lexer.h:127: 	if( *lexer->end != '.' )
	.loc 10 127 12
	mov	rax, QWORD PTR -48[rbp]	# tmp119, lexer
	mov	rax, QWORD PTR 8[rax]	# _9, lexer_40(D)->end
# lexer/lexer.h:127: 	if( *lexer->end != '.' )
	.loc 10 127 6
	movzx	eax, BYTE PTR [rax]	# _10, *_9
# lexer/lexer.h:127: 	if( *lexer->end != '.' )
	.loc 10 127 4
	cmp	al, 46	# _10,
	je	.L194	#,
# lexer/lexer.h:129: 		token.value.i64 = strtoll( lexer->start, &lexer->end, 10 );
	.loc 10 129 44
	mov	rax, QWORD PTR -48[rbp]	# tmp120, lexer
	lea	rcx, 8[rax]	# _11,
# lexer/lexer.h:129: 		token.value.i64 = strtoll( lexer->start, &lexer->end, 10 );
	.loc 10 129 35
	mov	rax, QWORD PTR -48[rbp]	# tmp121, lexer
	mov	rax, QWORD PTR [rax]	# _12, lexer_40(D)->start
# lexer/lexer.h:129: 		token.value.i64 = strtoll( lexer->start, &lexer->end, 10 );
	.loc 10 129 21
	mov	edx, 10	#,
	mov	rsi, rcx	#, _11
	mov	rdi, rax	#, _12
	call	__isoc23_strtoll@PLT	#
# lexer/lexer.h:129: 		token.value.i64 = strtoll( lexer->start, &lexer->end, 10 );
	.loc 10 129 19 discriminator 1
	mov	QWORD PTR -16[rbp], rax	# token.value.D.4160.i64, _13
# lexer/lexer.h:130: 		return token;
	.loc 10 130 10
	mov	rcx, QWORD PTR -40[rbp]	# tmp122, .result_ptr
	mov	rax, QWORD PTR -32[rbp]	# tmp123, token
	mov	rdx, QWORD PTR -24[rbp]	#, token
	mov	QWORD PTR [rcx], rax	# <retval>, tmp123
	mov	QWORD PTR 8[rcx], rdx	# <retval>,
	mov	rax, QWORD PTR -16[rbp]	# tmp124, token
	mov	QWORD PTR 16[rcx], rax	# <retval>, tmp124
	jmp	.L199	#
.L194:
# lexer/lexer.h:132: 	if( ascii[ *( U8* )++lexer->end ] != NUM ){ Throw( "Malformed Float\n" ); }
	.loc 10 132 28
	mov	rax, QWORD PTR -48[rbp]	# tmp125, lexer
	mov	rax, QWORD PTR 8[rax]	# _14, lexer_40(D)->end
# lexer/lexer.h:132: 	if( ascii[ *( U8* )++lexer->end ] != NUM ){ Throw( "Malformed Float\n" ); }
	.loc 10 132 14
	lea	rdx, 1[rax]	# _15,
# lexer/lexer.h:132: 	if( ascii[ *( U8* )++lexer->end ] != NUM ){ Throw( "Malformed Float\n" ); }
	.loc 10 132 4
	mov	rax, QWORD PTR -48[rbp]	# tmp126, lexer
	mov	QWORD PTR 8[rax], rdx	# lexer_40(D)->end, _15
# lexer/lexer.h:132: 	if( ascii[ *( U8* )++lexer->end ] != NUM ){ Throw( "Malformed Float\n" ); }
	.loc 10 132 28
	mov	rax, QWORD PTR -48[rbp]	# tmp127, lexer
	mov	rax, QWORD PTR 8[rax]	# _16, lexer_40(D)->end
# lexer/lexer.h:132: 	if( ascii[ *( U8* )++lexer->end ] != NUM ){ Throw( "Malformed Float\n" ); }
	.loc 10 132 13
	movzx	eax, BYTE PTR [rax]	# _17, MEM[(U8 *)_16]
	movzx	eax, al	# _18, _17
# lexer/lexer.h:132: 	if( ascii[ *( U8* )++lexer->end ] != NUM ){ Throw( "Malformed Float\n" ); }
	.loc 10 132 11
	lea	rdx, 0[0+rax*8]	# _19,
	mov	rax, QWORD PTR -64[rbp]	# tmp128, ascii
	add	rax, rdx	# _20, _19
	mov	rax, QWORD PTR [rax]	# _21, *_20
# lexer/lexer.h:132: 	if( ascii[ *( U8* )++lexer->end ] != NUM ){ Throw( "Malformed Float\n" ); }
	.loc 10 132 4
	cmp	QWORD PTR -56[rbp], rax	# NUM, _21
	je	.L197	#,
# lexer/lexer.h:132: 	if( ascii[ *( U8* )++lexer->end ] != NUM ){ Throw( "Malformed Float\n" ); }
	.loc 10 132 46 discriminator 1
	lea	rax, .LC4[rip]	# tmp129,
	mov	rdi, rax	#, tmp129
	mov	eax, 0	#,
	call	Throw	#
# lexer/lexer.h:133: 	while( ascii[ *( U8* )lexer->end ] == NUM ){ lexer->end++; }
	.loc 10 133 7
	jmp	.L197	#
.L198:
# lexer/lexer.h:133: 	while( ascii[ *( U8* )lexer->end ] == NUM ){ lexer->end++; }
	.loc 10 133 52 discriminator 2
	mov	rax, QWORD PTR -48[rbp]	# tmp130, lexer
	mov	rax, QWORD PTR 8[rax]	# _22, lexer_40(D)->end
# lexer/lexer.h:133: 	while( ascii[ *( U8* )lexer->end ] == NUM ){ lexer->end++; }
	.loc 10 133 57 discriminator 2
	lea	rdx, 1[rax]	# _23,
	mov	rax, QWORD PTR -48[rbp]	# tmp131, lexer
	mov	QWORD PTR 8[rax], rdx	# lexer_40(D)->end, _23
.L197:
# lexer/lexer.h:133: 	while( ascii[ *( U8* )lexer->end ] == NUM ){ lexer->end++; }
	.loc 10 133 29 discriminator 1
	mov	rax, QWORD PTR -48[rbp]	# tmp132, lexer
	mov	rax, QWORD PTR 8[rax]	# _24, lexer_40(D)->end
# lexer/lexer.h:133: 	while( ascii[ *( U8* )lexer->end ] == NUM ){ lexer->end++; }
	.loc 10 133 16 discriminator 1
	movzx	eax, BYTE PTR [rax]	# _25, MEM[(U8 *)_24]
	movzx	eax, al	# _26, _25
# lexer/lexer.h:133: 	while( ascii[ *( U8* )lexer->end ] == NUM ){ lexer->end++; }
	.loc 10 133 14 discriminator 1
	lea	rdx, 0[0+rax*8]	# _27,
	mov	rax, QWORD PTR -64[rbp]	# tmp133, ascii
	add	rax, rdx	# _28, _27
	mov	rax, QWORD PTR [rax]	# _29, *_28
# lexer/lexer.h:133: 	while( ascii[ *( U8* )lexer->end ] == NUM ){ lexer->end++; }
	.loc 10 133 37 discriminator 1
	cmp	QWORD PTR -56[rbp], rax	# NUM, _29
	je	.L198	#,
# lexer/lexer.h:134: 	token.value.f64 = strtod( lexer->start, &lexer->end );
	.loc 10 134 42
	mov	rax, QWORD PTR -48[rbp]	# tmp134, lexer
	lea	rdx, 8[rax]	# _30,
# lexer/lexer.h:134: 	token.value.f64 = strtod( lexer->start, &lexer->end );
	.loc 10 134 33
	mov	rax, QWORD PTR -48[rbp]	# tmp135, lexer
	mov	rax, QWORD PTR [rax]	# _31, lexer_40(D)->start
# lexer/lexer.h:134: 	token.value.f64 = strtod( lexer->start, &lexer->end );
	.loc 10 134 20
	mov	rsi, rdx	#, _30
	mov	rdi, rax	#, _31
	call	strtod@PLT	#
	movq	rax, xmm0	# _32,
# lexer/lexer.h:134: 	token.value.f64 = strtod( lexer->start, &lexer->end );
	.loc 10 134 18 discriminator 1
	mov	QWORD PTR -16[rbp], rax	# token.value.D.4160.f64, _32
# lexer/lexer.h:135: 	return token;
	.loc 10 135 9
	mov	rcx, QWORD PTR -40[rbp]	# tmp136, .result_ptr
	mov	rax, QWORD PTR -32[rbp]	# tmp137, token
	mov	rdx, QWORD PTR -24[rbp]	#, token
	mov	QWORD PTR [rcx], rax	# <retval>, tmp137
	mov	QWORD PTR 8[rcx], rdx	# <retval>,
	mov	rax, QWORD PTR -16[rbp]	# tmp138, token
	mov	QWORD PTR 16[rcx], rax	# <retval>, tmp138
.L199:
# lexer/lexer.h:136: }
	.loc 10 136 1
	mov	rax, QWORD PTR -40[rbp]	#, .result_ptr
	leave	
	.cfi_def_cfa 7, 8
	ret	
	.cfi_endproc
.LFE63:
	.size	LexNum, .-LexNum
	.type	LexColon, @function
LexColon:
.LFB64:
	.loc 10 139 1
	.cfi_startproc
	push	rbp	#
	.cfi_def_cfa_offset 16
	.cfi_offset 6, -16
	mov	rbp, rsp	#,
	.cfi_def_cfa_register 6
	sub	rsp, 32	#,
	mov	QWORD PTR -24[rbp], rdi	# .result_ptr, .result_ptr
	mov	QWORD PTR -32[rbp], rsi	# lexer, lexer
# lexer/lexer.h:139: {	/* : :. :: */
	.loc 10 139 1
	mov	rax, QWORD PTR fs:40	# tmp97, MEM[(<address-space-1> long unsigned int *)40B]
	mov	QWORD PTR -8[rbp], rax	# D.6561, tmp97
	xor	eax, eax	# tmp97
# lexer/lexer.h:140: 	U8 off = ( *lexer->end == '.' ) + ( *lexer->end == ':' ) * 2;
	.loc 10 140 19
	mov	rax, QWORD PTR -32[rbp]	# tmp92, lexer
	mov	rax, QWORD PTR 8[rax]	# _1, lexer_12(D)->end
# lexer/lexer.h:140: 	U8 off = ( *lexer->end == '.' ) + ( *lexer->end == ':' ) * 2;
	.loc 10 140 13
	movzx	eax, BYTE PTR [rax]	# _2, *_1
# lexer/lexer.h:140: 	U8 off = ( *lexer->end == '.' ) + ( *lexer->end == ':' ) * 2;
	.loc 10 140 25
	cmp	al, 46	# _2,
	sete	al	#, _3
	mov	edx, eax	# _4, _3
# lexer/lexer.h:140: 	U8 off = ( *lexer->end == '.' ) + ( *lexer->end == ':' ) * 2;
	.loc 10 140 44
	mov	rax, QWORD PTR -32[rbp]	# tmp93, lexer
	mov	rax, QWORD PTR 8[rax]	# _5, lexer_12(D)->end
# lexer/lexer.h:140: 	U8 off = ( *lexer->end == '.' ) + ( *lexer->end == ':' ) * 2;
	.loc 10 140 38
	movzx	eax, BYTE PTR [rax]	# _6, *_5
# lexer/lexer.h:140: 	U8 off = ( *lexer->end == '.' ) + ( *lexer->end == ':' ) * 2;
	.loc 10 140 34
	cmp	al, 58	# _6,
	jne	.L201	#,
# lexer/lexer.h:140: 	U8 off = ( *lexer->end == '.' ) + ( *lexer->end == ':' ) * 2;
	.loc 10 140 34 is_stmt 0 discriminator 1
	mov	eax, 2	# iftmp.7_10,
	jmp	.L202	#
.L201:
# lexer/lexer.h:140: 	U8 off = ( *lexer->end == '.' ) + ( *lexer->end == ':' ) * 2;
	.loc 10 140 34 discriminator 2
	mov	eax, 0	# iftmp.7_10,
.L202:
# lexer/lexer.h:140: 	U8 off = ( *lexer->end == '.' ) + ( *lexer->end == ':' ) * 2;
	.loc 10 140 5 is_stmt 1 discriminator 4
	add	eax, edx	# tmp94, _4
	mov	BYTE PTR -9[rbp], al	# off, tmp94
# lexer/lexer.h:141: 	return LexSet( lexer, TK_COLON, off, off != 0 );
	.loc 10 141 9
	cmp	BYTE PTR -9[rbp], 0	# off,
	setne	al	#, _7
	movzx	ecx, al	# _8, _7
	movzx	edx, BYTE PTR -9[rbp]	# _9, off
	mov	rax, QWORD PTR -24[rbp]	# tmp95, .result_ptr
	mov	rsi, QWORD PTR -32[rbp]	# tmp96, lexer
	mov	r8d, ecx	#, _8
	mov	ecx, edx	#, _9
	mov	edx, 49	#,
	mov	rdi, rax	#, tmp95
	call	LexSet	#
# lexer/lexer.h:142: }
	.loc 10 142 1
	mov	rax, QWORD PTR -8[rbp]	# tmp98, D.6561
	sub	rax, QWORD PTR fs:40	# tmp98, MEM[(<address-space-1> long unsigned int *)40B]
	je	.L204	#,
	call	__stack_chk_fail@PLT	#
.L204:
	mov	rax, QWORD PTR -24[rbp]	#, .result_ptr
	leave	
	.cfi_def_cfa 7, 8
	ret	
	.cfi_endproc
.LFE64:
	.size	LexColon, .-LexColon
	.type	LexSemi, @function
LexSemi:
.LFB65:
	.loc 10 145 1
	.cfi_startproc
	push	rbp	#
	.cfi_def_cfa_offset 16
	.cfi_offset 6, -16
	mov	rbp, rsp	#,
	.cfi_def_cfa_register 6
	sub	rsp, 32	#,
	mov	QWORD PTR -24[rbp], rdi	# .result_ptr, .result_ptr
	mov	QWORD PTR -32[rbp], rsi	# lexer, lexer
# lexer/lexer.h:145: {	/* ; ;. ;; */
	.loc 10 145 1
	mov	rax, QWORD PTR fs:40	# tmp97, MEM[(<address-space-1> long unsigned int *)40B]
	mov	QWORD PTR -8[rbp], rax	# D.6564, tmp97
	xor	eax, eax	# tmp97
# lexer/lexer.h:146: 	U8 off = ( *lexer->end == '.' ) + ( *lexer->end == ';' ) * 2;
	.loc 10 146 19
	mov	rax, QWORD PTR -32[rbp]	# tmp92, lexer
	mov	rax, QWORD PTR 8[rax]	# _1, lexer_12(D)->end
# lexer/lexer.h:146: 	U8 off = ( *lexer->end == '.' ) + ( *lexer->end == ';' ) * 2;
	.loc 10 146 13
	movzx	eax, BYTE PTR [rax]	# _2, *_1
# lexer/lexer.h:146: 	U8 off = ( *lexer->end == '.' ) + ( *lexer->end == ';' ) * 2;
	.loc 10 146 25
	cmp	al, 46	# _2,
	sete	al	#, _3
	mov	edx, eax	# _4, _3
# lexer/lexer.h:146: 	U8 off = ( *lexer->end == '.' ) + ( *lexer->end == ';' ) * 2;
	.loc 10 146 44
	mov	rax, QWORD PTR -32[rbp]	# tmp93, lexer
	mov	rax, QWORD PTR 8[rax]	# _5, lexer_12(D)->end
# lexer/lexer.h:146: 	U8 off = ( *lexer->end == '.' ) + ( *lexer->end == ';' ) * 2;
	.loc 10 146 38
	movzx	eax, BYTE PTR [rax]	# _6, *_5
# lexer/lexer.h:146: 	U8 off = ( *lexer->end == '.' ) + ( *lexer->end == ';' ) * 2;
	.loc 10 146 34
	cmp	al, 59	# _6,
	jne	.L206	#,
# lexer/lexer.h:146: 	U8 off = ( *lexer->end == '.' ) + ( *lexer->end == ';' ) * 2;
	.loc 10 146 34 is_stmt 0 discriminator 1
	mov	eax, 2	# iftmp.8_10,
	jmp	.L207	#
.L206:
# lexer/lexer.h:146: 	U8 off = ( *lexer->end == '.' ) + ( *lexer->end == ';' ) * 2;
	.loc 10 146 34 discriminator 2
	mov	eax, 0	# iftmp.8_10,
.L207:
# lexer/lexer.h:146: 	U8 off = ( *lexer->end == '.' ) + ( *lexer->end == ';' ) * 2;
	.loc 10 146 5 is_stmt 1 discriminator 4
	add	eax, edx	# tmp94, _4
	mov	BYTE PTR -9[rbp], al	# off, tmp94
# lexer/lexer.h:147: 	return LexSet( lexer, TK_SEMI, off, off != 0 );
	.loc 10 147 9
	cmp	BYTE PTR -9[rbp], 0	# off,
	setne	al	#, _7
	movzx	ecx, al	# _8, _7
	movzx	edx, BYTE PTR -9[rbp]	# _9, off
	mov	rax, QWORD PTR -24[rbp]	# tmp95, .result_ptr
	mov	rsi, QWORD PTR -32[rbp]	# tmp96, lexer
	mov	r8d, ecx	#, _8
	mov	ecx, edx	#, _9
	mov	edx, 46	#,
	mov	rdi, rax	#, tmp95
	call	LexSet	#
# lexer/lexer.h:148: }
	.loc 10 148 1
	mov	rax, QWORD PTR -8[rbp]	# tmp98, D.6564
	sub	rax, QWORD PTR fs:40	# tmp98, MEM[(<address-space-1> long unsigned int *)40B]
	je	.L209	#,
	call	__stack_chk_fail@PLT	#
.L209:
	mov	rax, QWORD PTR -24[rbp]	#, .result_ptr
	leave	
	.cfi_def_cfa 7, 8
	ret	
	.cfi_endproc
.LFE65:
	.size	LexSemi, .-LexSemi
	.type	LexLt, @function
LexLt:
.LFB66:
	.loc 10 151 1
	.cfi_startproc
	push	rbp	#
	.cfi_def_cfa_offset 16
	.cfi_offset 6, -16
	mov	rbp, rsp	#,
	.cfi_def_cfa_register 6
	sub	rsp, 32	#,
	mov	QWORD PTR -24[rbp], rdi	# .result_ptr, .result_ptr
	mov	QWORD PTR -32[rbp], rsi	# lexer, lexer
# lexer/lexer.h:151: {	/* < <= << <<= */
	.loc 10 151 1
	mov	rax, QWORD PTR fs:40	# tmp108, MEM[(<address-space-1> long unsigned int *)40B]
	mov	QWORD PTR -8[rbp], rax	# D.6567, tmp108
	xor	eax, eax	# tmp108
# lexer/lexer.h:152: 	U8 off = ( *lexer->end == '=' )
	.loc 10 152 19
	mov	rax, QWORD PTR -32[rbp]	# tmp102, lexer
	mov	rax, QWORD PTR 8[rax]	# _1, lexer_22(D)->end
# lexer/lexer.h:152: 	U8 off = ( *lexer->end == '=' )
	.loc 10 152 13
	movzx	eax, BYTE PTR [rax]	# _2, *_1
# lexer/lexer.h:152: 	U8 off = ( *lexer->end == '=' )
	.loc 10 152 25
	cmp	al, 61	# _2,
	sete	al	#, _3
	mov	edx, eax	# _4, _3
# lexer/lexer.h:153: 		+ ( *lexer->end == '<' ) * 2
	.loc 10 153 13
	mov	rax, QWORD PTR -32[rbp]	# tmp103, lexer
	mov	rax, QWORD PTR 8[rax]	# _5, lexer_22(D)->end
# lexer/lexer.h:153: 		+ ( *lexer->end == '<' ) * 2
	.loc 10 153 7
	movzx	eax, BYTE PTR [rax]	# _6, *_5
# lexer/lexer.h:153: 		+ ( *lexer->end == '<' ) * 2
	.loc 10 153 3
	cmp	al, 60	# _6,
	jne	.L211	#,
# lexer/lexer.h:153: 		+ ( *lexer->end == '<' ) * 2
	.loc 10 153 3 is_stmt 0 discriminator 1
	mov	eax, 2	# iftmp.9_20,
	jmp	.L212	#
.L211:
# lexer/lexer.h:153: 		+ ( *lexer->end == '<' ) * 2
	.loc 10 153 3 discriminator 2
	mov	eax, 0	# iftmp.9_20,
.L212:
# lexer/lexer.h:153: 		+ ( *lexer->end == '<' ) * 2
	.loc 10 153 3 discriminator 4
	add	edx, eax	# _7, iftmp.9_20
# lexer/lexer.h:154: 		+ ( *( lexer->end + 1 ) == '=' );
	.loc 10 154 15 is_stmt 1
	mov	rax, QWORD PTR -32[rbp]	# tmp104, lexer
	mov	rax, QWORD PTR 8[rax]	# _8, lexer_22(D)->end
# lexer/lexer.h:154: 		+ ( *( lexer->end + 1 ) == '=' );
	.loc 10 154 21
	add	rax, 1	# _9,
# lexer/lexer.h:154: 		+ ( *( lexer->end + 1 ) == '=' );
	.loc 10 154 7
	movzx	eax, BYTE PTR [rax]	# _10, *_9
# lexer/lexer.h:154: 		+ ( *( lexer->end + 1 ) == '=' );
	.loc 10 154 27
	cmp	al, 61	# _10,
	sete	al	#, _11
# lexer/lexer.h:152: 	U8 off = ( *lexer->end == '=' )
	.loc 10 152 5
	add	eax, edx	# tmp105, _7
	mov	BYTE PTR -9[rbp], al	# off, tmp105
# lexer/lexer.h:155: 	return LexSet( lexer, TK_LT, off, ( off != 0 ) + off > 2 );
	.loc 10 155 42
	cmp	BYTE PTR -9[rbp], 0	# off,
	setne	al	#, _13
	movzx	edx, al	# _14, _13
# lexer/lexer.h:155: 	return LexSet( lexer, TK_LT, off, ( off != 0 ) + off > 2 );
	.loc 10 155 49
	movzx	eax, BYTE PTR -9[rbp]	# _15, off
	add	eax, edx	# _16, _14
# lexer/lexer.h:155: 	return LexSet( lexer, TK_LT, off, ( off != 0 ) + off > 2 );
	.loc 10 155 9
	cmp	eax, 2	# _16,
	setg	al	#, _17
	movzx	ecx, al	# _18, _17
	movzx	edx, BYTE PTR -9[rbp]	# _19, off
	mov	rax, QWORD PTR -24[rbp]	# tmp106, .result_ptr
	mov	rsi, QWORD PTR -32[rbp]	# tmp107, lexer
	mov	r8d, ecx	#, _18
	mov	ecx, edx	#, _19
	mov	edx, 28	#,
	mov	rdi, rax	#, tmp106
	call	LexSet	#
# lexer/lexer.h:156: }
	.loc 10 156 1
	mov	rax, QWORD PTR -8[rbp]	# tmp109, D.6567
	sub	rax, QWORD PTR fs:40	# tmp109, MEM[(<address-space-1> long unsigned int *)40B]
	je	.L214	#,
	call	__stack_chk_fail@PLT	#
.L214:
	mov	rax, QWORD PTR -24[rbp]	#, .result_ptr
	leave	
	.cfi_def_cfa 7, 8
	ret	
	.cfi_endproc
.LFE66:
	.size	LexLt, .-LexLt
	.type	LexEq, @function
LexEq:
.LFB67:
	.loc 10 159 1
	.cfi_startproc
	push	rbp	#
	.cfi_def_cfa_offset 16
	.cfi_offset 6, -16
	mov	rbp, rsp	#,
	.cfi_def_cfa_register 6
	sub	rsp, 32	#,
	mov	QWORD PTR -24[rbp], rdi	# .result_ptr, .result_ptr
	mov	QWORD PTR -32[rbp], rsi	# lexer, lexer
# lexer/lexer.h:159: { /* = == */
	.loc 10 159 1
	mov	rax, QWORD PTR fs:40	# tmp90, MEM[(<address-space-1> long unsigned int *)40B]
	mov	QWORD PTR -8[rbp], rax	# D.6570, tmp90
	xor	eax, eax	# tmp90
# lexer/lexer.h:160: 	U8 off = ( *lexer->end == '=' );
	.loc 10 160 19
	mov	rax, QWORD PTR -32[rbp]	# tmp87, lexer
	mov	rax, QWORD PTR 8[rax]	# _1, lexer_7(D)->end
# lexer/lexer.h:160: 	U8 off = ( *lexer->end == '=' );
	.loc 10 160 13
	movzx	eax, BYTE PTR [rax]	# _2, *_1
# lexer/lexer.h:160: 	U8 off = ( *lexer->end == '=' );
	.loc 10 160 25
	cmp	al, 61	# _2,
	sete	al	#, _3
# lexer/lexer.h:160: 	U8 off = ( *lexer->end == '=' );
	.loc 10 160 5
	mov	BYTE PTR -9[rbp], al	# off, _3
# lexer/lexer.h:161: 	return LexSet( lexer, TK_EQ, off, off );
	.loc 10 161 9
	movzx	ecx, BYTE PTR -9[rbp]	# _4, off
	movzx	edx, BYTE PTR -9[rbp]	# _5, off
	mov	rax, QWORD PTR -24[rbp]	# tmp88, .result_ptr
	mov	rsi, QWORD PTR -32[rbp]	# tmp89, lexer
	mov	r8d, ecx	#, _4
	mov	ecx, edx	#, _5
	mov	edx, 26	#,
	mov	rdi, rax	#, tmp88
	call	LexSet	#
# lexer/lexer.h:162: }
	.loc 10 162 1
	mov	rax, QWORD PTR -8[rbp]	# tmp91, D.6570
	sub	rax, QWORD PTR fs:40	# tmp91, MEM[(<address-space-1> long unsigned int *)40B]
	je	.L217	#,
	call	__stack_chk_fail@PLT	#
.L217:
	mov	rax, QWORD PTR -24[rbp]	#, .result_ptr
	leave	
	.cfi_def_cfa 7, 8
	ret	
	.cfi_endproc
.LFE67:
	.size	LexEq, .-LexEq
	.type	LexGt, @function
LexGt:
.LFB68:
	.loc 10 165 1
	.cfi_startproc
	push	rbp	#
	.cfi_def_cfa_offset 16
	.cfi_offset 6, -16
	mov	rbp, rsp	#,
	.cfi_def_cfa_register 6
	sub	rsp, 32	#,
	mov	QWORD PTR -24[rbp], rdi	# .result_ptr, .result_ptr
	mov	QWORD PTR -32[rbp], rsi	# lexer, lexer
# lexer/lexer.h:165: {	/* > >= >> >>= */
	.loc 10 165 1
	mov	rax, QWORD PTR fs:40	# tmp108, MEM[(<address-space-1> long unsigned int *)40B]
	mov	QWORD PTR -8[rbp], rax	# D.6573, tmp108
	xor	eax, eax	# tmp108
# lexer/lexer.h:166: 	U8 off = ( *lexer->end == '=' )
	.loc 10 166 19
	mov	rax, QWORD PTR -32[rbp]	# tmp102, lexer
	mov	rax, QWORD PTR 8[rax]	# _1, lexer_22(D)->end
# lexer/lexer.h:166: 	U8 off = ( *lexer->end == '=' )
	.loc 10 166 13
	movzx	eax, BYTE PTR [rax]	# _2, *_1
# lexer/lexer.h:166: 	U8 off = ( *lexer->end == '=' )
	.loc 10 166 25
	cmp	al, 61	# _2,
	sete	al	#, _3
	mov	edx, eax	# _4, _3
# lexer/lexer.h:167: 		+ ( *lexer->end == '>' ) * 2
	.loc 10 167 13
	mov	rax, QWORD PTR -32[rbp]	# tmp103, lexer
	mov	rax, QWORD PTR 8[rax]	# _5, lexer_22(D)->end
# lexer/lexer.h:167: 		+ ( *lexer->end == '>' ) * 2
	.loc 10 167 7
	movzx	eax, BYTE PTR [rax]	# _6, *_5
# lexer/lexer.h:167: 		+ ( *lexer->end == '>' ) * 2
	.loc 10 167 3
	cmp	al, 62	# _6,
	jne	.L219	#,
# lexer/lexer.h:167: 		+ ( *lexer->end == '>' ) * 2
	.loc 10 167 3 is_stmt 0 discriminator 1
	mov	eax, 2	# iftmp.10_20,
	jmp	.L220	#
.L219:
# lexer/lexer.h:167: 		+ ( *lexer->end == '>' ) * 2
	.loc 10 167 3 discriminator 2
	mov	eax, 0	# iftmp.10_20,
.L220:
# lexer/lexer.h:167: 		+ ( *lexer->end == '>' ) * 2
	.loc 10 167 3 discriminator 4
	add	edx, eax	# _7, iftmp.10_20
# lexer/lexer.h:168: 		+ ( *( lexer->end + 1 ) == '=' );
	.loc 10 168 15 is_stmt 1
	mov	rax, QWORD PTR -32[rbp]	# tmp104, lexer
	mov	rax, QWORD PTR 8[rax]	# _8, lexer_22(D)->end
# lexer/lexer.h:168: 		+ ( *( lexer->end + 1 ) == '=' );
	.loc 10 168 21
	add	rax, 1	# _9,
# lexer/lexer.h:168: 		+ ( *( lexer->end + 1 ) == '=' );
	.loc 10 168 7
	movzx	eax, BYTE PTR [rax]	# _10, *_9
# lexer/lexer.h:168: 		+ ( *( lexer->end + 1 ) == '=' );
	.loc 10 168 27
	cmp	al, 61	# _10,
	sete	al	#, _11
# lexer/lexer.h:166: 	U8 off = ( *lexer->end == '=' )
	.loc 10 166 5
	add	eax, edx	# tmp105, _7
	mov	BYTE PTR -9[rbp], al	# off, tmp105
# lexer/lexer.h:169: 	return LexSet( lexer, TK_GT, off, ( off != 0 ) + off > 2 );
	.loc 10 169 42
	cmp	BYTE PTR -9[rbp], 0	# off,
	setne	al	#, _13
	movzx	edx, al	# _14, _13
# lexer/lexer.h:169: 	return LexSet( lexer, TK_GT, off, ( off != 0 ) + off > 2 );
	.loc 10 169 49
	movzx	eax, BYTE PTR -9[rbp]	# _15, off
	add	eax, edx	# _16, _14
# lexer/lexer.h:169: 	return LexSet( lexer, TK_GT, off, ( off != 0 ) + off > 2 );
	.loc 10 169 9
	cmp	eax, 2	# _16,
	setg	al	#, _17
	movzx	ecx, al	# _18, _17
	movzx	edx, BYTE PTR -9[rbp]	# _19, off
	mov	rax, QWORD PTR -24[rbp]	# tmp106, .result_ptr
	mov	rsi, QWORD PTR -32[rbp]	# tmp107, lexer
	mov	r8d, ecx	#, _18
	mov	ecx, edx	#, _19
	mov	edx, 32	#,
	mov	rdi, rax	#, tmp106
	call	LexSet	#
# lexer/lexer.h:170: }
	.loc 10 170 1
	mov	rax, QWORD PTR -8[rbp]	# tmp109, D.6573
	sub	rax, QWORD PTR fs:40	# tmp109, MEM[(<address-space-1> long unsigned int *)40B]
	je	.L222	#,
	call	__stack_chk_fail@PLT	#
.L222:
	mov	rax, QWORD PTR -24[rbp]	#, .result_ptr
	leave	
	.cfi_def_cfa 7, 8
	ret	
	.cfi_endproc
.LFE68:
	.size	LexGt, .-LexGt
	.type	LexReturn, @function
LexReturn:
.LFB69:
	.loc 10 172 37
	.cfi_startproc
	push	rbp	#
	.cfi_def_cfa_offset 16
	.cfi_offset 6, -16
	mov	rbp, rsp	#,
	.cfi_def_cfa_register 6
	sub	rsp, 32	#,
	mov	QWORD PTR -24[rbp], rdi	# .result_ptr, .result_ptr
	mov	QWORD PTR -32[rbp], rsi	# lexer, lexer
# lexer/lexer.h:172: STIL Token LexReturn( Lexer *lexer ){ return LexSet( lexer, TK_RET, 0, 0 ); }
	.loc 10 172 37
	mov	rax, QWORD PTR fs:40	# tmp84, MEM[(<address-space-1> long unsigned int *)40B]
	mov	QWORD PTR -8[rbp], rax	# D.6576, tmp84
	xor	eax, eax	# tmp84
# lexer/lexer.h:172: STIL Token LexReturn( Lexer *lexer ){ return LexSet( lexer, TK_RET, 0, 0 ); }
	.loc 10 172 46
	mov	rax, QWORD PTR -24[rbp]	# tmp82, .result_ptr
	mov	rsi, QWORD PTR -32[rbp]	# tmp83, lexer
	mov	r8d, 0	#,
	mov	ecx, 0	#,
	mov	edx, 53	#,
	mov	rdi, rax	#, tmp82
	call	LexSet	#
# lexer/lexer.h:172: STIL Token LexReturn( Lexer *lexer ){ return LexSet( lexer, TK_RET, 0, 0 ); }
	.loc 10 172 77
	mov	rax, QWORD PTR -8[rbp]	# tmp85, D.6576
	sub	rax, QWORD PTR fs:40	# tmp85, MEM[(<address-space-1> long unsigned int *)40B]
	je	.L225	#,
	call	__stack_chk_fail@PLT	#
.L225:
	mov	rax, QWORD PTR -24[rbp]	#, .result_ptr
	leave	
	.cfi_def_cfa 7, 8
	ret	
	.cfi_endproc
.LFE69:
	.size	LexReturn, .-LexReturn
	.type	LexId, @function
LexId:
.LFB70:
	.loc 10 175 1
	.cfi_startproc
	push	rbp	#
	.cfi_def_cfa_offset 16
	.cfi_offset 6, -16
	mov	rbp, rsp	#,
	.cfi_def_cfa_register 6
	sub	rsp, 96	#,
	mov	QWORD PTR -56[rbp], rdi	# .result_ptr, .result_ptr
	mov	QWORD PTR -64[rbp], rsi	# lexer, lexer
	mov	QWORD PTR -72[rbp], rdx	# ID, ID
	mov	QWORD PTR -80[rbp], rcx	# NUM, NUM
	mov	QWORD PTR -88[rbp], r8	# ascii, ascii
# lexer/lexer.h:176: 	while( ascii[ *( U8* )lexer->end ] == ID
	.loc 10 176 7
	jmp	.L227	#
.L228:
# lexer/lexer.h:177: 		|| ascii[ *( U8* )lexer->end ] == NUM ){ lexer->end++; }
	.loc 10 177 49 discriminator 4
	mov	rax, QWORD PTR -64[rbp]	# tmp103, lexer
	mov	rax, QWORD PTR 8[rax]	# _1, lexer_24(D)->end
# lexer/lexer.h:177: 		|| ascii[ *( U8* )lexer->end ] == NUM ){ lexer->end++; }
	.loc 10 177 54 discriminator 4
	lea	rdx, 1[rax]	# _2,
	mov	rax, QWORD PTR -64[rbp]	# tmp104, lexer
	mov	QWORD PTR 8[rax], rdx	# lexer_24(D)->end, _2
.L227:
# lexer/lexer.h:176: 	while( ascii[ *( U8* )lexer->end ] == ID
	.loc 10 176 29
	mov	rax, QWORD PTR -64[rbp]	# tmp105, lexer
	mov	rax, QWORD PTR 8[rax]	# _3, lexer_24(D)->end
# lexer/lexer.h:176: 	while( ascii[ *( U8* )lexer->end ] == ID
	.loc 10 176 16
	movzx	eax, BYTE PTR [rax]	# _4, MEM[(U8 *)_3]
	movzx	eax, al	# _5, _4
# lexer/lexer.h:176: 	while( ascii[ *( U8* )lexer->end ] == ID
	.loc 10 176 14
	lea	rdx, 0[0+rax*8]	# _6,
	mov	rax, QWORD PTR -88[rbp]	# tmp106, ascii
	add	rax, rdx	# _7, _6
	mov	rax, QWORD PTR [rax]	# _8, *_7
# lexer/lexer.h:177: 		|| ascii[ *( U8* )lexer->end ] == NUM ){ lexer->end++; }
	.loc 10 177 3 discriminator 1
	cmp	QWORD PTR -72[rbp], rax	# ID, _8
	je	.L228	#,
# lexer/lexer.h:177: 		|| ascii[ *( U8* )lexer->end ] == NUM ){ lexer->end++; }
	.loc 10 177 26 discriminator 3
	mov	rax, QWORD PTR -64[rbp]	# tmp107, lexer
	mov	rax, QWORD PTR 8[rax]	# _9, lexer_24(D)->end
# lexer/lexer.h:177: 		|| ascii[ *( U8* )lexer->end ] == NUM ){ lexer->end++; }
	.loc 10 177 13 discriminator 3
	movzx	eax, BYTE PTR [rax]	# _10, MEM[(U8 *)_9]
	movzx	eax, al	# _11, _10
# lexer/lexer.h:177: 		|| ascii[ *( U8* )lexer->end ] == NUM ){ lexer->end++; }
	.loc 10 177 11 discriminator 3
	lea	rdx, 0[0+rax*8]	# _12,
	mov	rax, QWORD PTR -88[rbp]	# tmp108, ascii
	add	rax, rdx	# _13, _12
	mov	rax, QWORD PTR [rax]	# _14, *_13
# lexer/lexer.h:177: 		|| ascii[ *( U8* )lexer->end ] == NUM ){ lexer->end++; }
	.loc 10 177 3 discriminator 3
	cmp	QWORD PTR -80[rbp], rax	# NUM, _14
	je	.L228	#,
# lexer/lexer.h:178: 	U32 len = lexer->end - lexer->start;
	.loc 10 178 17
	mov	rax, QWORD PTR -64[rbp]	# tmp109, lexer
	mov	rdx, QWORD PTR 8[rax]	# _15, lexer_24(D)->end
# lexer/lexer.h:178: 	U32 len = lexer->end - lexer->start;
	.loc 10 178 30
	mov	rax, QWORD PTR -64[rbp]	# tmp110, lexer
	mov	rax, QWORD PTR [rax]	# _16, lexer_24(D)->start
# lexer/lexer.h:178: 	U32 len = lexer->end - lexer->start;
	.loc 10 178 23
	sub	rdx, rax	# _17, _16
# lexer/lexer.h:178: 	U32 len = lexer->end - lexer->start;
	.loc 10 178 6
	mov	DWORD PTR -36[rbp], edx	# len, _17
# lexer/lexer.h:179: 	Token token = { .type = TK_ID };
	.loc 10 179 8
	pxor	xmm0, xmm0	# tmp111
	movaps	XMMWORD PTR -32[rbp], xmm0	# token, tmp111
	movq	QWORD PTR -16[rbp], xmm0	# token, tmp111
	mov	DWORD PTR -32[rbp], 57	# token.type,
# lexer/lexer.h:180: 	token.value.str = TablePut( lexer->interns, lexer->start + 1, len );
	.loc 10 180 51
	mov	rax, QWORD PTR -64[rbp]	# tmp112, lexer
	mov	rax, QWORD PTR [rax]	# _18, lexer_24(D)->start
# lexer/lexer.h:180: 	token.value.str = TablePut( lexer->interns, lexer->start + 1, len );
	.loc 10 180 20
	lea	rcx, 1[rax]	# _19,
	mov	rax, QWORD PTR -64[rbp]	# tmp113, lexer
	mov	rax, QWORD PTR 24[rax]	# _20, lexer_24(D)->interns
	mov	edx, DWORD PTR -36[rbp]	# tmp114, len
	mov	rsi, rcx	#, _19
	mov	rdi, rax	#, _20
	call	TablePut	#
# lexer/lexer.h:180: 	token.value.str = TablePut( lexer->interns, lexer->start + 1, len );
	.loc 10 180 18 discriminator 1
	mov	QWORD PTR -16[rbp], rax	# token.value.D.4160.str, _21
# lexer/lexer.h:181: 	return token;
	.loc 10 181 9
	mov	rcx, QWORD PTR -56[rbp]	# tmp115, .result_ptr
	mov	rax, QWORD PTR -32[rbp]	# tmp116, token
	mov	rdx, QWORD PTR -24[rbp]	#, token
	mov	QWORD PTR [rcx], rax	# <retval>, tmp116
	mov	QWORD PTR 8[rcx], rdx	# <retval>,
	mov	rax, QWORD PTR -16[rbp]	# tmp117, token
	mov	QWORD PTR 16[rcx], rax	# <retval>, tmp117
# lexer/lexer.h:182: }
	.loc 10 182 1
	mov	rax, QWORD PTR -56[rbp]	#, .result_ptr
	leave	
	.cfi_def_cfa 7, 8
	ret	
	.cfi_endproc
.LFE70:
	.size	LexId, .-LexId
	.type	LexLs, @function
LexLs:
.LFB71:
	.loc 10 184 33
	.cfi_startproc
	push	rbp	#
	.cfi_def_cfa_offset 16
	.cfi_offset 6, -16
	mov	rbp, rsp	#,
	.cfi_def_cfa_register 6
	sub	rsp, 32	#,
	mov	QWORD PTR -24[rbp], rdi	# .result_ptr, .result_ptr
	mov	QWORD PTR -32[rbp], rsi	# lexer, lexer
# lexer/lexer.h:184: STIL Token LexLs( Lexer *lexer ){ return LexSet( lexer, TK_LS, 0, 0 ); }
	.loc 10 184 33
	mov	rax, QWORD PTR fs:40	# tmp84, MEM[(<address-space-1> long unsigned int *)40B]
	mov	QWORD PTR -8[rbp], rax	# D.6580, tmp84
	xor	eax, eax	# tmp84
# lexer/lexer.h:184: STIL Token LexLs( Lexer *lexer ){ return LexSet( lexer, TK_LS, 0, 0 ); }
	.loc 10 184 42
	mov	rax, QWORD PTR -24[rbp]	# tmp82, .result_ptr
	mov	rsi, QWORD PTR -32[rbp]	# tmp83, lexer
	mov	r8d, 0	#,
	mov	ecx, 0	#,
	mov	edx, 38	#,
	mov	rdi, rax	#, tmp82
	call	LexSet	#
# lexer/lexer.h:184: STIL Token LexLs( Lexer *lexer ){ return LexSet( lexer, TK_LS, 0, 0 ); }
	.loc 10 184 72
	mov	rax, QWORD PTR -8[rbp]	# tmp85, D.6580
	sub	rax, QWORD PTR fs:40	# tmp85, MEM[(<address-space-1> long unsigned int *)40B]
	je	.L232	#,
	call	__stack_chk_fail@PLT	#
.L232:
	mov	rax, QWORD PTR -24[rbp]	#, .result_ptr
	leave	
	.cfi_def_cfa 7, 8
	ret	
	.cfi_endproc
.LFE71:
	.size	LexLs, .-LexLs
	.type	LexRs, @function
LexRs:
.LFB72:
	.loc 10 185 33
	.cfi_startproc
	push	rbp	#
	.cfi_def_cfa_offset 16
	.cfi_offset 6, -16
	mov	rbp, rsp	#,
	.cfi_def_cfa_register 6
	sub	rsp, 32	#,
	mov	QWORD PTR -24[rbp], rdi	# .result_ptr, .result_ptr
	mov	QWORD PTR -32[rbp], rsi	# lexer, lexer
# lexer/lexer.h:185: STIL Token LexRs( Lexer *lexer ){ return LexSet( lexer, TK_RS, 0, 0 ); }
	.loc 10 185 33
	mov	rax, QWORD PTR fs:40	# tmp84, MEM[(<address-space-1> long unsigned int *)40B]
	mov	QWORD PTR -8[rbp], rax	# D.6583, tmp84
	xor	eax, eax	# tmp84
# lexer/lexer.h:185: STIL Token LexRs( Lexer *lexer ){ return LexSet( lexer, TK_RS, 0, 0 ); }
	.loc 10 185 42
	mov	rax, QWORD PTR -24[rbp]	# tmp82, .result_ptr
	mov	rsi, QWORD PTR -32[rbp]	# tmp83, lexer
	mov	r8d, 0	#,
	mov	ecx, 0	#,
	mov	edx, 39	#,
	mov	rdi, rax	#, tmp82
	call	LexSet	#
# lexer/lexer.h:185: STIL Token LexRs( Lexer *lexer ){ return LexSet( lexer, TK_RS, 0, 0 ); }
	.loc 10 185 72
	mov	rax, QWORD PTR -8[rbp]	# tmp85, D.6583
	sub	rax, QWORD PTR fs:40	# tmp85, MEM[(<address-space-1> long unsigned int *)40B]
	je	.L235	#,
	call	__stack_chk_fail@PLT	#
.L235:
	mov	rax, QWORD PTR -24[rbp]	#, .result_ptr
	leave	
	.cfi_def_cfa 7, 8
	ret	
	.cfi_endproc
.LFE72:
	.size	LexRs, .-LexRs
	.type	LexBxor, @function
LexBxor:
.LFB73:
	.loc 10 188 1
	.cfi_startproc
	push	rbp	#
	.cfi_def_cfa_offset 16
	.cfi_offset 6, -16
	mov	rbp, rsp	#,
	.cfi_def_cfa_register 6
	sub	rsp, 32	#,
	mov	QWORD PTR -24[rbp], rdi	# .result_ptr, .result_ptr
	mov	QWORD PTR -32[rbp], rsi	# lexer, lexer
# lexer/lexer.h:188: { /* ^ ^= */
	.loc 10 188 1
	mov	rax, QWORD PTR fs:40	# tmp90, MEM[(<address-space-1> long unsigned int *)40B]
	mov	QWORD PTR -8[rbp], rax	# D.6586, tmp90
	xor	eax, eax	# tmp90
# lexer/lexer.h:189: 	U8 off = ( *lexer->end == '=' );
	.loc 10 189 19
	mov	rax, QWORD PTR -32[rbp]	# tmp87, lexer
	mov	rax, QWORD PTR 8[rax]	# _1, lexer_7(D)->end
# lexer/lexer.h:189: 	U8 off = ( *lexer->end == '=' );
	.loc 10 189 13
	movzx	eax, BYTE PTR [rax]	# _2, *_1
# lexer/lexer.h:189: 	U8 off = ( *lexer->end == '=' );
	.loc 10 189 25
	cmp	al, 61	# _2,
	sete	al	#, _3
# lexer/lexer.h:189: 	U8 off = ( *lexer->end == '=' );
	.loc 10 189 5
	mov	BYTE PTR -9[rbp], al	# off, _3
# lexer/lexer.h:190: 	return LexSet( lexer, TK_BXOR, off, off );
	.loc 10 190 9
	movzx	ecx, BYTE PTR -9[rbp]	# _4, off
	movzx	edx, BYTE PTR -9[rbp]	# _5, off
	mov	rax, QWORD PTR -24[rbp]	# tmp88, .result_ptr
	mov	rsi, QWORD PTR -32[rbp]	# tmp89, lexer
	mov	r8d, ecx	#, _4
	mov	ecx, edx	#, _5
	mov	edx, 24	#,
	mov	rdi, rax	#, tmp88
	call	LexSet	#
# lexer/lexer.h:191: }
	.loc 10 191 1
	mov	rax, QWORD PTR -8[rbp]	# tmp91, D.6586
	sub	rax, QWORD PTR fs:40	# tmp91, MEM[(<address-space-1> long unsigned int *)40B]
	je	.L238	#,
	call	__stack_chk_fail@PLT	#
.L238:
	mov	rax, QWORD PTR -24[rbp]	#, .result_ptr
	leave	
	.cfi_def_cfa 7, 8
	ret	
	.cfi_endproc
.LFE73:
	.size	LexBxor, .-LexBxor
	.type	LexBnot, @function
LexBnot:
.LFB74:
	.loc 10 193 35
	.cfi_startproc
	push	rbp	#
	.cfi_def_cfa_offset 16
	.cfi_offset 6, -16
	mov	rbp, rsp	#,
	.cfi_def_cfa_register 6
	sub	rsp, 32	#,
	mov	QWORD PTR -24[rbp], rdi	# .result_ptr, .result_ptr
	mov	QWORD PTR -32[rbp], rsi	# lexer, lexer
# lexer/lexer.h:193: STIL Token LexBnot( Lexer *lexer ){ return LexSet( lexer, TK_BNOT, 0, 0 ); }
	.loc 10 193 35
	mov	rax, QWORD PTR fs:40	# tmp84, MEM[(<address-space-1> long unsigned int *)40B]
	mov	QWORD PTR -8[rbp], rax	# D.6589, tmp84
	xor	eax, eax	# tmp84
# lexer/lexer.h:193: STIL Token LexBnot( Lexer *lexer ){ return LexSet( lexer, TK_BNOT, 0, 0 ); }
	.loc 10 193 44
	mov	rax, QWORD PTR -24[rbp]	# tmp82, .result_ptr
	mov	rsi, QWORD PTR -32[rbp]	# tmp83, lexer
	mov	r8d, 0	#,
	mov	ecx, 0	#,
	mov	edx, 3	#,
	mov	rdi, rax	#, tmp82
	call	LexSet	#
# lexer/lexer.h:193: STIL Token LexBnot( Lexer *lexer ){ return LexSet( lexer, TK_BNOT, 0, 0 ); }
	.loc 10 193 76
	mov	rax, QWORD PTR -8[rbp]	# tmp85, D.6589
	sub	rax, QWORD PTR fs:40	# tmp85, MEM[(<address-space-1> long unsigned int *)40B]
	je	.L241	#,
	call	__stack_chk_fail@PLT	#
.L241:
	mov	rax, QWORD PTR -24[rbp]	#, .result_ptr
	leave	
	.cfi_def_cfa 7, 8
	ret	
	.cfi_endproc
.LFE74:
	.size	LexBnot, .-LexBnot
	.type	LexLc, @function
LexLc:
.LFB75:
	.loc 10 194 33
	.cfi_startproc
	push	rbp	#
	.cfi_def_cfa_offset 16
	.cfi_offset 6, -16
	mov	rbp, rsp	#,
	.cfi_def_cfa_register 6
	sub	rsp, 32	#,
	mov	QWORD PTR -24[rbp], rdi	# .result_ptr, .result_ptr
	mov	QWORD PTR -32[rbp], rsi	# lexer, lexer
# lexer/lexer.h:194: STIL Token LexLc( Lexer *lexer ){ return LexSet( lexer, TK_LC, 0, 0 ); }
	.loc 10 194 33
	mov	rax, QWORD PTR fs:40	# tmp84, MEM[(<address-space-1> long unsigned int *)40B]
	mov	QWORD PTR -8[rbp], rax	# D.6592, tmp84
	xor	eax, eax	# tmp84
# lexer/lexer.h:194: STIL Token LexLc( Lexer *lexer ){ return LexSet( lexer, TK_LC, 0, 0 ); }
	.loc 10 194 42
	mov	rax, QWORD PTR -24[rbp]	# tmp82, .result_ptr
	mov	rsi, QWORD PTR -32[rbp]	# tmp83, lexer
	mov	r8d, 0	#,
	mov	ecx, 0	#,
	mov	edx, 40	#,
	mov	rdi, rax	#, tmp82
	call	LexSet	#
# lexer/lexer.h:194: STIL Token LexLc( Lexer *lexer ){ return LexSet( lexer, TK_LC, 0, 0 ); }
	.loc 10 194 72
	mov	rax, QWORD PTR -8[rbp]	# tmp85, D.6592
	sub	rax, QWORD PTR fs:40	# tmp85, MEM[(<address-space-1> long unsigned int *)40B]
	je	.L244	#,
	call	__stack_chk_fail@PLT	#
.L244:
	mov	rax, QWORD PTR -24[rbp]	#, .result_ptr
	leave	
	.cfi_def_cfa 7, 8
	ret	
	.cfi_endproc
.LFE75:
	.size	LexLc, .-LexLc
	.type	LexBor, @function
LexBor:
.LFB76:
	.loc 10 197 1
	.cfi_startproc
	push	rbp	#
	.cfi_def_cfa_offset 16
	.cfi_offset 6, -16
	mov	rbp, rsp	#,
	.cfi_def_cfa_register 6
	sub	rsp, 32	#,
	mov	QWORD PTR -24[rbp], rdi	# .result_ptr, .result_ptr
	mov	QWORD PTR -32[rbp], rsi	# lexer, lexer
# lexer/lexer.h:197: { /* | |= || */
	.loc 10 197 1
	mov	rax, QWORD PTR fs:40	# tmp97, MEM[(<address-space-1> long unsigned int *)40B]
	mov	QWORD PTR -8[rbp], rax	# D.6595, tmp97
	xor	eax, eax	# tmp97
# lexer/lexer.h:198: 	U8 off = ( *lexer->end == '=' ) + ( *lexer->end == '|' ) * 2;
	.loc 10 198 19
	mov	rax, QWORD PTR -32[rbp]	# tmp92, lexer
	mov	rax, QWORD PTR 8[rax]	# _1, lexer_12(D)->end
# lexer/lexer.h:198: 	U8 off = ( *lexer->end == '=' ) + ( *lexer->end == '|' ) * 2;
	.loc 10 198 13
	movzx	eax, BYTE PTR [rax]	# _2, *_1
# lexer/lexer.h:198: 	U8 off = ( *lexer->end == '=' ) + ( *lexer->end == '|' ) * 2;
	.loc 10 198 25
	cmp	al, 61	# _2,
	sete	al	#, _3
	mov	edx, eax	# _4, _3
# lexer/lexer.h:198: 	U8 off = ( *lexer->end == '=' ) + ( *lexer->end == '|' ) * 2;
	.loc 10 198 44
	mov	rax, QWORD PTR -32[rbp]	# tmp93, lexer
	mov	rax, QWORD PTR 8[rax]	# _5, lexer_12(D)->end
# lexer/lexer.h:198: 	U8 off = ( *lexer->end == '=' ) + ( *lexer->end == '|' ) * 2;
	.loc 10 198 38
	movzx	eax, BYTE PTR [rax]	# _6, *_5
# lexer/lexer.h:198: 	U8 off = ( *lexer->end == '=' ) + ( *lexer->end == '|' ) * 2;
	.loc 10 198 34
	cmp	al, 124	# _6,
	jne	.L246	#,
# lexer/lexer.h:198: 	U8 off = ( *lexer->end == '=' ) + ( *lexer->end == '|' ) * 2;
	.loc 10 198 34 is_stmt 0 discriminator 1
	mov	eax, 2	# iftmp.11_10,
	jmp	.L247	#
.L246:
# lexer/lexer.h:198: 	U8 off = ( *lexer->end == '=' ) + ( *lexer->end == '|' ) * 2;
	.loc 10 198 34 discriminator 2
	mov	eax, 0	# iftmp.11_10,
.L247:
# lexer/lexer.h:198: 	U8 off = ( *lexer->end == '=' ) + ( *lexer->end == '|' ) * 2;
	.loc 10 198 5 is_stmt 1 discriminator 4
	add	eax, edx	# tmp94, _4
	mov	BYTE PTR -9[rbp], al	# off, tmp94
# lexer/lexer.h:199: 	return LexSet( lexer, TK_BOR, off, off != 0 );
	.loc 10 199 9
	cmp	BYTE PTR -9[rbp], 0	# off,
	setne	al	#, _7
	movzx	ecx, al	# _8, _7
	movzx	edx, BYTE PTR -9[rbp]	# _9, off
	mov	rax, QWORD PTR -24[rbp]	# tmp95, .result_ptr
	mov	rsi, QWORD PTR -32[rbp]	# tmp96, lexer
	mov	r8d, ecx	#, _8
	mov	ecx, edx	#, _9
	mov	edx, 21	#,
	mov	rdi, rax	#, tmp95
	call	LexSet	#
# lexer/lexer.h:200: }
	.loc 10 200 1
	mov	rax, QWORD PTR -8[rbp]	# tmp98, D.6595
	sub	rax, QWORD PTR fs:40	# tmp98, MEM[(<address-space-1> long unsigned int *)40B]
	je	.L249	#,
	call	__stack_chk_fail@PLT	#
.L249:
	mov	rax, QWORD PTR -24[rbp]	#, .result_ptr
	leave	
	.cfi_def_cfa 7, 8
	ret	
	.cfi_endproc
.LFE76:
	.size	LexBor, .-LexBor
	.type	LexRc, @function
LexRc:
.LFB77:
	.loc 10 202 33
	.cfi_startproc
	push	rbp	#
	.cfi_def_cfa_offset 16
	.cfi_offset 6, -16
	mov	rbp, rsp	#,
	.cfi_def_cfa_register 6
	sub	rsp, 32	#,
	mov	QWORD PTR -24[rbp], rdi	# .result_ptr, .result_ptr
	mov	QWORD PTR -32[rbp], rsi	# lexer, lexer
# lexer/lexer.h:202: STIL Token LexRc( Lexer *lexer ){ return LexSet( lexer, TK_RC, 0, 0 ); }
	.loc 10 202 33
	mov	rax, QWORD PTR fs:40	# tmp84, MEM[(<address-space-1> long unsigned int *)40B]
	mov	QWORD PTR -8[rbp], rax	# D.6598, tmp84
	xor	eax, eax	# tmp84
# lexer/lexer.h:202: STIL Token LexRc( Lexer *lexer ){ return LexSet( lexer, TK_RC, 0, 0 ); }
	.loc 10 202 42
	mov	rax, QWORD PTR -24[rbp]	# tmp82, .result_ptr
	mov	rsi, QWORD PTR -32[rbp]	# tmp83, lexer
	mov	r8d, 0	#,
	mov	ecx, 0	#,
	mov	edx, 41	#,
	mov	rdi, rax	#, tmp82
	call	LexSet	#
# lexer/lexer.h:202: STIL Token LexRc( Lexer *lexer ){ return LexSet( lexer, TK_RC, 0, 0 ); }
	.loc 10 202 72
	mov	rax, QWORD PTR -8[rbp]	# tmp85, D.6598
	sub	rax, QWORD PTR fs:40	# tmp85, MEM[(<address-space-1> long unsigned int *)40B]
	je	.L252	#,
	call	__stack_chk_fail@PLT	#
.L252:
	mov	rax, QWORD PTR -24[rbp]	#, .result_ptr
	leave	
	.cfi_def_cfa 7, 8
	ret	
	.cfi_endproc
.LFE77:
	.size	LexRc, .-LexRc
	.globl	Lex
	.type	Lex, @function
Lex:
.LFB78:
	.loc 10 205 1
	.cfi_startproc
	endbr64	
	push	rbp	#
	.cfi_def_cfa_offset 16
	.cfi_offset 6, -16
	mov	rbp, rsp	#,
	.cfi_def_cfa_register 6
	sub	rsp, 32	#,
	mov	QWORD PTR -24[rbp], rdi	# .result_ptr, .result_ptr
# lexer/lexer.h:205: {
	.loc 10 205 1
	mov	rax, QWORD PTR fs:40	# tmp158, MEM[(<address-space-1> long unsigned int *)40B]
	mov	QWORD PTR -8[rbp], rax	# D.6601, tmp158
	xor	eax, eax	# tmp158
# lexer/lexer.h:206: 	Lexer *lexer = GetLexer( );
	.loc 10 206 17
	call	GetLexer	#
	mov	QWORD PTR -16[rbp], rax	# lexer, tmp88
# lexer/lexer.h:208: 	lexer->start = lexer->end;
	.loc 10 208 22
	mov	rax, QWORD PTR -16[rbp]	# tmp89, lexer
	mov	rdx, QWORD PTR 8[rax]	# _1, lexer_12->end
# lexer/lexer.h:208: 	lexer->start = lexer->end;
	.loc 10 208 15
	mov	rax, QWORD PTR -16[rbp]	# tmp90, lexer
	mov	QWORD PTR [rax], rdx	# lexer_12->start, _1
.L254:
	endbr64	
# lexer/lexer.h:209: 	LEX: goto *ascii[ *( U8* )lexer->end++ ];
	.loc 10 209 33
	mov	rax, QWORD PTR -16[rbp]	# tmp91, lexer
	mov	rax, QWORD PTR 8[rax]	# _2, lexer_12->end
# lexer/lexer.h:209: 	LEX: goto *ascii[ *( U8* )lexer->end++ ];
	.loc 10 209 21
	lea	rcx, 1[rax]	# _4,
	mov	rdx, QWORD PTR -16[rbp]	# tmp92, lexer
	mov	QWORD PTR 8[rdx], rcx	# lexer_12->end, _4
# lexer/lexer.h:209: 	LEX: goto *ascii[ *( U8* )lexer->end++ ];
	.loc 10 209 20
	movzx	eax, BYTE PTR [rax]	# _5, MEM[(U8 *)_3]
	movzx	eax, al	# _6, _5
# lexer/lexer.h:209: 	LEX: goto *ascii[ *( U8* )lexer->end++ ];
	.loc 10 209 18
	cdqe
	lea	rdx, 0[0+rax*8]	# tmp94,
	lea	rax, ascii.48[rip]	# tmp95,
	mov	rax, QWORD PTR [rdx+rax]	# _7, ascii[_6]
# lexer/lexer.h:209: 	LEX: goto *ascii[ *( U8* )lexer->end++ ];
	.loc 10 209 7
	nop	
	jmp	rax	# _7
.L255:
	endbr64	
# lexer/ascii_labels.h:1: EOS: return LexEof( lexer );
	.file 11 "lexer/ascii_labels.h"
	.loc 11 1 13
	mov	rax, QWORD PTR -24[rbp]	# tmp96, .result_ptr
	mov	rdx, QWORD PTR -16[rbp]	# tmp97, lexer
	mov	rsi, rdx	#, tmp97
	mov	rdi, rax	#, tmp96
	call	LexEof	#
	jmp	.L256	#
.L257:
	endbr64	
# lexer/ascii_labels.h:2: LINE: LexLine( lexer ); goto LEX;
	.loc 11 2 7
	mov	rax, QWORD PTR -16[rbp]	# tmp98, lexer
	mov	rdi, rax	#, tmp98
	call	LexLine	#
# lexer/ascii_labels.h:2: LINE: LexLine( lexer ); goto LEX;
	.loc 11 2 25
	jmp	.L254	#
.L258:
	endbr64	
# lexer/ascii_labels.h:3: NOT: return LexNot( lexer );
	.loc 11 3 13
	mov	rax, QWORD PTR -24[rbp]	# tmp99, .result_ptr
	mov	rdx, QWORD PTR -16[rbp]	# tmp100, lexer
	mov	rsi, rdx	#, tmp100
	mov	rdi, rax	#, tmp99
	call	LexNot	#
	jmp	.L256	#
.L259:
	endbr64	
# lexer/ascii_labels.h:4: STR: return LexStr( lexer );
	.loc 11 4 13
	mov	rax, QWORD PTR -24[rbp]	# tmp101, .result_ptr
	mov	rdx, QWORD PTR -16[rbp]	# tmp102, lexer
	mov	rsi, rdx	#, tmp102
	mov	rdi, rax	#, tmp101
	call	LexStr	#
	jmp	.L256	#
.L260:
	endbr64	
# lexer/ascii_labels.h:5: COMMENT: LexComment( lexer ); goto LEX;
	.loc 11 5 10
	mov	rax, QWORD PTR -16[rbp]	# tmp103, lexer
	mov	rdi, rax	#, tmp103
	call	LexComment	#
# lexer/ascii_labels.h:5: COMMENT: LexComment( lexer ); goto LEX;
	.loc 11 5 31
	jmp	.L254	#
.L261:
	endbr64	
# lexer/ascii_labels.h:6: MOD: return LexMod( lexer );
	.loc 11 6 13
	mov	rax, QWORD PTR -24[rbp]	# tmp104, .result_ptr
	mov	rdx, QWORD PTR -16[rbp]	# tmp105, lexer
	mov	rsi, rdx	#, tmp105
	mov	rdi, rax	#, tmp104
	call	LexMod	#
	jmp	.L256	#
.L262:
	endbr64	
# lexer/ascii_labels.h:7: BAND: return LexBand( lexer );
	.loc 11 7 14
	mov	rax, QWORD PTR -24[rbp]	# tmp106, .result_ptr
	mov	rdx, QWORD PTR -16[rbp]	# tmp107, lexer
	mov	rsi, rdx	#, tmp107
	mov	rdi, rax	#, tmp106
	call	LexBand	#
	jmp	.L256	#
.L263:
	endbr64	
# lexer/ascii_labels.h:8: LP: return LexLp( lexer );
	.loc 11 8 12
	mov	rax, QWORD PTR -24[rbp]	# tmp108, .result_ptr
	mov	rdx, QWORD PTR -16[rbp]	# tmp109, lexer
	mov	rsi, rdx	#, tmp109
	mov	rdi, rax	#, tmp108
	call	LexLp	#
	jmp	.L256	#
.L264:
	endbr64	
# lexer/ascii_labels.h:9: RP: return LexRp( lexer );
	.loc 11 9 12
	mov	rax, QWORD PTR -24[rbp]	# tmp110, .result_ptr
	mov	rdx, QWORD PTR -16[rbp]	# tmp111, lexer
	mov	rsi, rdx	#, tmp111
	mov	rdi, rax	#, tmp110
	call	LexRp	#
	jmp	.L256	#
.L265:
	endbr64	
# lexer/ascii_labels.h:10: MUL: return LexMul( lexer );
	.loc 11 10 13
	mov	rax, QWORD PTR -24[rbp]	# tmp112, .result_ptr
	mov	rdx, QWORD PTR -16[rbp]	# tmp113, lexer
	mov	rsi, rdx	#, tmp113
	mov	rdi, rax	#, tmp112
	call	LexMul	#
	jmp	.L256	#
.L266:
	endbr64	
# lexer/ascii_labels.h:11: ADD: return LexAdd( lexer );
	.loc 11 11 13
	mov	rax, QWORD PTR -24[rbp]	# tmp114, .result_ptr
	mov	rdx, QWORD PTR -16[rbp]	# tmp115, lexer
	mov	rsi, rdx	#, tmp115
	mov	rdi, rax	#, tmp114
	call	LexAdd	#
	jmp	.L256	#
.L267:
	endbr64	
# lexer/ascii_labels.h:12: COMMA: return LexComma( lexer );
	.loc 11 12 15
	mov	rax, QWORD PTR -24[rbp]	# tmp116, .result_ptr
	mov	rdx, QWORD PTR -16[rbp]	# tmp117, lexer
	mov	rsi, rdx	#, tmp117
	mov	rdi, rax	#, tmp116
	call	LexComma	#
	jmp	.L256	#
.L268:
	endbr64	
# lexer/ascii_labels.h:13: SUB: return LexSub( lexer );
	.loc 11 13 13
	mov	rax, QWORD PTR -24[rbp]	# tmp118, .result_ptr
	mov	rdx, QWORD PTR -16[rbp]	# tmp119, lexer
	mov	rsi, rdx	#, tmp119
	mov	rdi, rax	#, tmp118
	call	LexSub	#
	jmp	.L256	#
.L269:
	endbr64	
# lexer/ascii_labels.h:14: DOT: return LexDot( lexer );
	.loc 11 14 13
	mov	rax, QWORD PTR -24[rbp]	# tmp120, .result_ptr
	mov	rdx, QWORD PTR -16[rbp]	# tmp121, lexer
	mov	rsi, rdx	#, tmp121
	mov	rdi, rax	#, tmp120
	call	LexDot	#
	jmp	.L256	#
.L270:
	endbr64	
# lexer/ascii_labels.h:15: DIV: return LexDiv( lexer );
	.loc 11 15 13
	mov	rax, QWORD PTR -24[rbp]	# tmp122, .result_ptr
	mov	rdx, QWORD PTR -16[rbp]	# tmp123, lexer
	mov	rsi, rdx	#, tmp123
	mov	rdi, rax	#, tmp122
	call	LexDiv	#
	jmp	.L256	#
.L271:
	endbr64	
# lexer/ascii_labels.h:16: NUM: return LexNum( lexer, &&NUM, ascii );
	.loc 11 16 13
	mov	rax, QWORD PTR -24[rbp]	# tmp124, .result_ptr
	mov	rsi, QWORD PTR -16[rbp]	# tmp125, lexer
	lea	rdx, ascii.48[rip]	# tmp126,
	mov	rcx, rdx	#, tmp126
	lea	rdx, .L271[rip]	# tmp127,
	mov	rdi, rax	#, tmp124
	call	LexNum	#
	jmp	.L256	#
.L272:
	endbr64	
# lexer/ascii_labels.h:17: COLON: return LexColon( lexer );
	.loc 11 17 15
	mov	rax, QWORD PTR -24[rbp]	# tmp128, .result_ptr
	mov	rdx, QWORD PTR -16[rbp]	# tmp129, lexer
	mov	rsi, rdx	#, tmp129
	mov	rdi, rax	#, tmp128
	call	LexColon	#
	jmp	.L256	#
.L273:
	endbr64	
# lexer/ascii_labels.h:18: SEMI: return LexSemi( lexer );
	.loc 11 18 14
	mov	rax, QWORD PTR -24[rbp]	# tmp130, .result_ptr
	mov	rdx, QWORD PTR -16[rbp]	# tmp131, lexer
	mov	rsi, rdx	#, tmp131
	mov	rdi, rax	#, tmp130
	call	LexSemi	#
	jmp	.L256	#
.L274:
	endbr64	
# lexer/ascii_labels.h:19: LT: return LexLt( lexer );
	.loc 11 19 12
	mov	rax, QWORD PTR -24[rbp]	# tmp132, .result_ptr
	mov	rdx, QWORD PTR -16[rbp]	# tmp133, lexer
	mov	rsi, rdx	#, tmp133
	mov	rdi, rax	#, tmp132
	call	LexLt	#
	jmp	.L256	#
.L275:
	endbr64	
# lexer/ascii_labels.h:20: EQ: return LexEq( lexer );
	.loc 11 20 12
	mov	rax, QWORD PTR -24[rbp]	# tmp134, .result_ptr
	mov	rdx, QWORD PTR -16[rbp]	# tmp135, lexer
	mov	rsi, rdx	#, tmp135
	mov	rdi, rax	#, tmp134
	call	LexEq	#
	jmp	.L256	#
.L276:
	endbr64	
# lexer/ascii_labels.h:21: GT: return LexGt( lexer );
	.loc 11 21 12
	mov	rax, QWORD PTR -24[rbp]	# tmp136, .result_ptr
	mov	rdx, QWORD PTR -16[rbp]	# tmp137, lexer
	mov	rsi, rdx	#, tmp137
	mov	rdi, rax	#, tmp136
	call	LexGt	#
	jmp	.L256	#
.L277:
	endbr64	
# lexer/ascii_labels.h:22: RET: return LexReturn( lexer );
	.loc 11 22 13
	mov	rax, QWORD PTR -24[rbp]	# tmp138, .result_ptr
	mov	rdx, QWORD PTR -16[rbp]	# tmp139, lexer
	mov	rsi, rdx	#, tmp139
	mov	rdi, rax	#, tmp138
	call	LexReturn	#
	jmp	.L256	#
.L278:
	endbr64	
# lexer/ascii_labels.h:23: ID: return LexId( lexer, &&ID, &&NUM, ascii );
	.loc 11 23 12
	mov	rax, QWORD PTR -24[rbp]	# tmp140, .result_ptr
	mov	rsi, QWORD PTR -16[rbp]	# tmp141, lexer
	lea	r8, ascii.48[rip]	#,
	lea	rdx, .L271[rip]	# tmp142,
	mov	rcx, rdx	#, tmp142
	lea	rdx, .L278[rip]	# tmp143,
	mov	rdi, rax	#, tmp140
	call	LexId	#
	jmp	.L256	#
.L279:
	endbr64	
# lexer/ascii_labels.h:24: LS: return LexLs( lexer );
	.loc 11 24 12
	mov	rax, QWORD PTR -24[rbp]	# tmp144, .result_ptr
	mov	rdx, QWORD PTR -16[rbp]	# tmp145, lexer
	mov	rsi, rdx	#, tmp145
	mov	rdi, rax	#, tmp144
	call	LexLs	#
	jmp	.L256	#
.L280:
	endbr64	
# lexer/ascii_labels.h:25: RS: return LexRs( lexer );
	.loc 11 25 12
	mov	rax, QWORD PTR -24[rbp]	# tmp146, .result_ptr
	mov	rdx, QWORD PTR -16[rbp]	# tmp147, lexer
	mov	rsi, rdx	#, tmp147
	mov	rdi, rax	#, tmp146
	call	LexRs	#
	jmp	.L256	#
.L281:
	endbr64	
# lexer/ascii_labels.h:26: BXOR: return LexBxor( lexer );
	.loc 11 26 14
	mov	rax, QWORD PTR -24[rbp]	# tmp148, .result_ptr
	mov	rdx, QWORD PTR -16[rbp]	# tmp149, lexer
	mov	rsi, rdx	#, tmp149
	mov	rdi, rax	#, tmp148
	call	LexBxor	#
	jmp	.L256	#
.L282:
	endbr64	
# lexer/ascii_labels.h:27: BNOT: return LexBnot( lexer );
	.loc 11 27 14
	mov	rax, QWORD PTR -24[rbp]	# tmp150, .result_ptr
	mov	rdx, QWORD PTR -16[rbp]	# tmp151, lexer
	mov	rsi, rdx	#, tmp151
	mov	rdi, rax	#, tmp150
	call	LexBnot	#
	jmp	.L256	#
.L283:
	endbr64	
# lexer/ascii_labels.h:28: LC: return LexLc( lexer );
	.loc 11 28 12
	mov	rax, QWORD PTR -24[rbp]	# tmp152, .result_ptr
	mov	rdx, QWORD PTR -16[rbp]	# tmp153, lexer
	mov	rsi, rdx	#, tmp153
	mov	rdi, rax	#, tmp152
	call	LexLc	#
	jmp	.L256	#
.L284:
	endbr64	
# lexer/ascii_labels.h:29: BOR: return LexBor( lexer );
	.loc 11 29 13
	mov	rax, QWORD PTR -24[rbp]	# tmp154, .result_ptr
	mov	rdx, QWORD PTR -16[rbp]	# tmp155, lexer
	mov	rsi, rdx	#, tmp155
	mov	rdi, rax	#, tmp154
	call	LexBor	#
	jmp	.L256	#
.L285:
	endbr64	
# lexer/ascii_labels.h:30: RC: return LexRc( lexer );
	.loc 11 30 12
	mov	rax, QWORD PTR -24[rbp]	# tmp156, .result_ptr
	mov	rdx, QWORD PTR -16[rbp]	# tmp157, lexer
	mov	rsi, rdx	#, tmp157
	mov	rdi, rax	#, tmp156
	call	LexRc	#
.L256:
# lexer/lexer.h:211: }
	.loc 10 211 1
	mov	rax, QWORD PTR -8[rbp]	# tmp159, D.6601
	sub	rax, QWORD PTR fs:40	# tmp159, MEM[(<address-space-1> long unsigned int *)40B]
	je	.L286	#,
	call	__stack_chk_fail@PLT	#
.L286:
	mov	rax, QWORD PTR -24[rbp]	#, .result_ptr
	leave	
	.cfi_def_cfa 7, 8
	ret	
	.cfi_endproc
.LFE78:
	.size	Lex, .-Lex
	.type	GetParser, @function
GetParser:
.LFB79:
	.file 12 "parser/parser.h"
	.loc 12 20 1
	.cfi_startproc
	push	rbp	#
	.cfi_def_cfa_offset 16
	.cfi_offset 6, -16
	mov	rbp, rsp	#,
	.cfi_def_cfa_register 6
# parser/parser.h:22: 	return &parser;
	.loc 12 22 9
	lea	rax, parser.42[rip]	# _1,
# parser/parser.h:23: }
	.loc 12 23 1
	pop	rbp	#
	.cfi_def_cfa 7, 8
	ret	
	.cfi_endproc
.LFE79:
	.size	GetParser, .-GetParser
	.globl	ParserInit
	.type	ParserInit, @function
ParserInit:
.LFB80:
	.loc 12 32 1
	.cfi_startproc
	endbr64	
	push	rbp	#
	.cfi_def_cfa_offset 16
	.cfi_offset 6, -16
	mov	rbp, rsp	#,
	.cfi_def_cfa_register 6
# parser/parser.h:35: }
	.loc 12 35 1
	nop	
	pop	rbp	#
	.cfi_def_cfa 7, 8
	ret	
	.cfi_endproc
.LFE80:
	.size	ParserInit, .-ParserInit
	.section	.rodata
.LC5:
	.string	"%ld\n"
.LC6:
	.string	"%f\n"
	.text
	.globl	ParseNodeLog
	.type	ParseNodeLog, @function
ParseNodeLog:
.LFB81:
	.loc 12 38 1
	.cfi_startproc
	endbr64	
	push	rbp	#
	.cfi_def_cfa_offset 16
	.cfi_offset 6, -16
	mov	rbp, rsp	#,
	.cfi_def_cfa_register 6
	sub	rsp, 32	#,
	mov	QWORD PTR -24[rbp], rdi	# node, node
# parser/parser.h:40: 	if( node->type != PT_CONST ){ return; }
	.loc 12 40 10
	mov	rax, QWORD PTR -24[rbp]	# tmp89, node
	mov	eax, DWORD PTR [rax]	# _1, node_10(D)->type
# parser/parser.h:40: 	if( node->type != PT_CONST ){ return; }
	.loc 12 40 4
	test	eax, eax	# _1
	jne	.L297	#,
# parser/parser.h:41: 	goto *types[ node->value.type ];
	.loc 12 41 26
	mov	rax, QWORD PTR -24[rbp]	# tmp90, node
	mov	eax, DWORD PTR 8[rax]	# _2, node_10(D)->value.type
# parser/parser.h:41: 	goto *types[ node->value.type ];
	.loc 12 41 13
	mov	eax, eax	# tmp91, _2
	lea	rdx, 0[0+rax*8]	# tmp92,
	lea	rax, types.45[rip]	# tmp93,
	mov	rax, QWORD PTR [rdx+rax]	# _3, types[_2]
# parser/parser.h:41: 	goto *types[ node->value.type ];
	.loc 12 41 2
	nop	
	jmp	rax	# _3
.L294:
	endbr64	
# parser/parser.h:43: 		printf( "%ld\n", node->value.i64 );
	.loc 12 43 3
	mov	rax, QWORD PTR -24[rbp]	# tmp94, node
	mov	rax, QWORD PTR 16[rax]	# _4, node_10(D)->value.D.4160.i64
	mov	rsi, rax	#, _4
	lea	rax, .LC5[rip]	# tmp95,
	mov	rdi, rax	#, tmp95
	mov	eax, 0	#,
	call	printf@PLT	#
# parser/parser.h:44: 		return;
	.loc 12 44 3
	jmp	.L290	#
.L295:
	endbr64	
# parser/parser.h:46: 		printf( "%f\n", node->value.f64 );
	.loc 12 46 3
	mov	rax, QWORD PTR -24[rbp]	# tmp96, node
	mov	rax, QWORD PTR 16[rax]	# _5, node_10(D)->value.D.4160.f64
	movq	xmm0, rax	#, _5
	lea	rax, .LC6[rip]	# tmp97,
	mov	rdi, rax	#, tmp97
	mov	eax, 1	#,
	call	printf@PLT	#
# parser/parser.h:47: 		return;
	.loc 12 47 3
	jmp	.L290	#
.L296:
	endbr64	
# parser/parser.h:49: 		Arena *strings = GetStrings( );
	.loc 12 49 20
	call	GetStrings	#
	mov	QWORD PTR -16[rbp], rax	# strings, tmp98
# parser/parser.h:50: 		I8 *cstr = ArenaOff( strings, node->value.str->offset );
	.loc 12 50 44
	mov	rax, QWORD PTR -24[rbp]	# tmp99, node
	mov	rax, QWORD PTR 16[rax]	# _6, node_10(D)->value.D.4160.str
# parser/parser.h:50: 		I8 *cstr = ArenaOff( strings, node->value.str->offset );
	.loc 12 50 14
	mov	edx, DWORD PTR [rax]	# _7, _6->offset
	mov	rax, QWORD PTR -16[rbp]	# tmp100, strings
	mov	esi, edx	#, _7
	mov	rdi, rax	#, tmp100
	call	ArenaOff	#
	mov	QWORD PTR -8[rbp], rax	# cstr, tmp101
# parser/parser.h:51: 		printf( "%s\n", cstr );
	.loc 12 51 3
	mov	rax, QWORD PTR -8[rbp]	# tmp102, cstr
	mov	rdi, rax	#, tmp102
	call	puts@PLT	#
# parser/parser.h:52: 		return;
	.loc 12 52 3
	jmp	.L290	#
.L297:
# parser/parser.h:40: 	if( node->type != PT_CONST ){ return; }
	.loc 12 40 32
	nop	
.L290:
# parser/parser.h:53: }
	.loc 12 53 1
	leave	
	.cfi_def_cfa 7, 8
	ret	
	.cfi_endproc
.LFE81:
	.size	ParseNodeLog, .-ParseNodeLog
	.section	.rodata
.LC7:
	.string	"Expected: %d Got: %d\n"
	.text
	.globl	ParseMatch
	.type	ParseMatch, @function
ParseMatch:
.LFB82:
	.loc 12 56 1
	.cfi_startproc
	endbr64	
	push	rbp	#
	.cfi_def_cfa_offset 16
	.cfi_offset 6, -16
	mov	rbp, rsp	#,
	.cfi_def_cfa_register 6
	push	rbx	#
	sub	rsp, 72	#,
	.cfi_offset 3, -24
	mov	QWORD PTR -40[rbp], rdi	# parser, parser
	mov	DWORD PTR -44[rbp], esi	# type, type
# parser/parser.h:56: {
	.loc 12 56 1
	mov	rax, QWORD PTR fs:40	# tmp92, MEM[(<address-space-1> long unsigned int *)40B]
	mov	QWORD PTR -24[rbp], rax	# D.6633, tmp92
	xor	eax, eax	# tmp92
# parser/parser.h:57: 	if( type != parser->token.type )
	.loc 12 57 27
	mov	rax, QWORD PTR -40[rbp]	# tmp84, parser
	mov	eax, DWORD PTR [rax]	# _1, parser_5(D)->token.type
# parser/parser.h:57: 	if( type != parser->token.type )
	.loc 12 57 4
	cmp	DWORD PTR -44[rbp], eax	# type, _1
	je	.L299	#,
# parser/parser.h:59: 		Throw( "Expected: %d Got: %d\n", type, parser->token.type );
	.loc 12 59 55
	mov	rax, QWORD PTR -40[rbp]	# tmp85, parser
	mov	edx, DWORD PTR [rax]	# _2, parser_5(D)->token.type
# parser/parser.h:59: 		Throw( "Expected: %d Got: %d\n", type, parser->token.type );
	.loc 12 59 3
	mov	eax, DWORD PTR -44[rbp]	# tmp86, type
	mov	esi, eax	#, tmp86
	lea	rax, .LC7[rip]	# tmp87,
	mov	rdi, rax	#, tmp87
	mov	eax, 0	#,
	call	Throw	#
.L299:
# parser/parser.h:61: 	parser->token = Lex( );
	.loc 12 61 18
	mov	rbx, QWORD PTR -40[rbp]	# tmp88, parser
	lea	rax, -80[rbp]	# tmp89,
	mov	rdi, rax	#, tmp89
	call	Lex	#
	mov	rax, QWORD PTR -80[rbp]	# tmp90,
	mov	rdx, QWORD PTR -72[rbp]	#,
	mov	QWORD PTR [rbx], rax	# parser_5(D)->token, tmp90
	mov	QWORD PTR 8[rbx], rdx	# parser_5(D)->token,
	mov	rax, QWORD PTR -64[rbp]	# tmp91,
	mov	QWORD PTR 16[rbx], rax	# parser_5(D)->token, tmp91
# parser/parser.h:62: }
	.loc 12 62 1
	nop	
	mov	rax, QWORD PTR -24[rbp]	# tmp93, D.6633
	sub	rax, QWORD PTR fs:40	# tmp93, MEM[(<address-space-1> long unsigned int *)40B]
	je	.L300	#,
	call	__stack_chk_fail@PLT	#
.L300:
	mov	rbx, QWORD PTR -8[rbp]	#,
	leave	
	.cfi_def_cfa 7, 8
	ret	
	.cfi_endproc
.LFE82:
	.size	ParseMatch, .-ParseMatch
	.globl	ParseIf
	.type	ParseIf, @function
ParseIf:
.LFB83:
	.loc 12 67 1
	.cfi_startproc
	endbr64	
	push	rbp	#
	.cfi_def_cfa_offset 16
	.cfi_offset 6, -16
	mov	rbp, rsp	#,
	.cfi_def_cfa_register 6
	sub	rsp, 80	#,
	mov	QWORD PTR -72[rbp], rdi	# .result_ptr, .result_ptr
	mov	QWORD PTR -80[rbp], rsi	# parser, parser
# parser/parser.h:67: {
	.loc 12 67 1
	mov	rax, QWORD PTR fs:40	# tmp98, MEM[(<address-space-1> long unsigned int *)40B]
	mov	QWORD PTR -8[rbp], rax	# D.6637, tmp98
	xor	eax, eax	# tmp98
# parser/parser.h:68: 	ParseMatch( parser, TK_IF );
	.loc 12 68 2
	mov	rax, QWORD PTR -80[rbp]	# tmp85, parser
	mov	esi, 43	#,
	mov	rdi, rax	#, tmp85
	call	ParseMatch	#
# parser/parser.h:69: 	ParseNode cond = ParseExpr( parser, PREC_NONE );
	.loc 12 69 19
	lea	rax, -64[rbp]	# tmp86,
	mov	rcx, QWORD PTR -80[rbp]	# tmp87, parser
	mov	edx, 0	#,
	mov	rsi, rcx	#, tmp87
	mov	rdi, rax	#, tmp86
	call	ParseExpr	#
# parser/parser.h:71: 	ParseMatch( parser, TK_THEN );
	.loc 12 71 2
	mov	rax, QWORD PTR -80[rbp]	# tmp88, parser
	mov	esi, 50	#,
	mov	rdi, rax	#, tmp88
	call	ParseMatch	#
# parser/parser.h:73: 	for( ; parser->token.type; )
	.loc 12 73 2
	jmp	.L302	#
.L306:
.LBB12:
# parser/parser.h:75: 		ParseNode stmt = ParseStmt( parser );
	.loc 12 75 20
	lea	rax, -32[rbp]	# tmp89,
	mov	rdx, QWORD PTR -80[rbp]	# tmp90, parser
	mov	rsi, rdx	#, tmp90
	mov	rdi, rax	#, tmp89
	call	ParseStmt	#
# parser/parser.h:76: 		if( parser->token.type == TK_END ){ break; }
	.loc 12 76 20
	mov	rax, QWORD PTR -80[rbp]	# tmp91, parser
	mov	eax, DWORD PTR [rax]	# _1, parser_8(D)->token.type
# parser/parser.h:76: 		if( parser->token.type == TK_END ){ break; }
	.loc 12 76 5
	cmp	eax, 51	# _1,
	je	.L309	#,
# parser/parser.h:77: 		if( parser->token.type == TK_ELSE )
	.loc 12 77 20
	mov	rax, QWORD PTR -80[rbp]	# tmp92, parser
	mov	eax, DWORD PTR [rax]	# _2, parser_8(D)->token.type
# parser/parser.h:77: 		if( parser->token.type == TK_ELSE )
	.loc 12 77 5
	cmp	eax, 45	# _2,
	jne	.L302	#,
# parser/parser.h:79: 			ParseMatch( parser, TK_ELSE );
	.loc 12 79 4
	mov	rax, QWORD PTR -80[rbp]	# tmp93, parser
	mov	esi, 45	#,
	mov	rdi, rax	#, tmp93
	call	ParseMatch	#
.L302:
.LBE12:
# parser/parser.h:73: 	for( ; parser->token.type; )
	.loc 12 73 22
	mov	rax, QWORD PTR -80[rbp]	# tmp94, parser
	mov	eax, DWORD PTR [rax]	# _3, parser_8(D)->token.type
# parser/parser.h:73: 	for( ; parser->token.type; )
	.loc 12 73 9
	test	eax, eax	# _3
	jne	.L306	#,
	jmp	.L304	#
.L309:
.LBB13:
# parser/parser.h:76: 		if( parser->token.type == TK_END ){ break; }
	.loc 12 76 39
	nop	
.L304:
.LBE13:
# parser/parser.h:83: 	ParseMatch( parser, TK_END );
	.loc 12 83 2
	mov	rax, QWORD PTR -80[rbp]	# tmp95, parser
	mov	esi, 51	#,
	mov	rdi, rax	#, tmp95
	call	ParseMatch	#
# parser/parser.h:84: 	return ( ParseNode ){ 0 };
	.loc 12 84 9
	mov	rax, QWORD PTR -72[rbp]	# tmp96, .result_ptr
	pxor	xmm0, xmm0	# tmp97
	movups	XMMWORD PTR [rax], xmm0	# <retval>, tmp97
	movq	QWORD PTR 16[rax], xmm0	# <retval>, tmp97
# parser/parser.h:85: }
	.loc 12 85 1
	mov	rax, QWORD PTR -8[rbp]	# tmp99, D.6637
	sub	rax, QWORD PTR fs:40	# tmp99, MEM[(<address-space-1> long unsigned int *)40B]
	je	.L308	#,
	call	__stack_chk_fail@PLT	#
.L308:
	mov	rax, QWORD PTR -72[rbp]	#, .result_ptr
	leave	
	.cfi_def_cfa 7, 8
	ret	
	.cfi_endproc
.LFE83:
	.size	ParseIf, .-ParseIf
	.globl	ParseFor
	.type	ParseFor, @function
ParseFor:
.LFB84:
	.loc 12 88 1
	.cfi_startproc
	endbr64	
	push	rbp	#
	.cfi_def_cfa_offset 16
	.cfi_offset 6, -16
	mov	rbp, rsp	#,
	.cfi_def_cfa_register 6
	sub	rsp, 48	#,
	mov	QWORD PTR -40[rbp], rdi	# .result_ptr, .result_ptr
	mov	QWORD PTR -48[rbp], rsi	# parser, parser
# parser/parser.h:89: 	ParseMatch( parser, TK_FOR );
	.loc 12 89 2
	mov	rax, QWORD PTR -48[rbp]	# tmp82, parser
	mov	esi, 44	#,
	mov	rdi, rax	#, tmp82
	call	ParseMatch	#
# parser/parser.h:90: 	return ( ParseNode ){ 0 };	
	.loc 12 90 9
	mov	rax, QWORD PTR -40[rbp]	# tmp83, .result_ptr
	pxor	xmm0, xmm0	# tmp84
	movups	XMMWORD PTR [rax], xmm0	# <retval>, tmp84
	movq	QWORD PTR 16[rax], xmm0	# <retval>, tmp84
# parser/parser.h:91: }
	.loc 12 91 1
	mov	rax, QWORD PTR -40[rbp]	#, .result_ptr
	leave	
	.cfi_def_cfa 7, 8
	ret	
	.cfi_endproc
.LFE84:
	.size	ParseFor, .-ParseFor
	.globl	ParseDo
	.type	ParseDo, @function
ParseDo:
.LFB85:
	.loc 12 94 1
	.cfi_startproc
	endbr64	
	push	rbp	#
	.cfi_def_cfa_offset 16
	.cfi_offset 6, -16
	mov	rbp, rsp	#,
	.cfi_def_cfa_register 6
	sub	rsp, 48	#,
	mov	QWORD PTR -40[rbp], rdi	# .result_ptr, .result_ptr
	mov	QWORD PTR -48[rbp], rsi	# parser, parser
# parser/parser.h:95: 	ParseMatch( parser, TK_DO );
	.loc 12 95 2
	mov	rax, QWORD PTR -48[rbp]	# tmp82, parser
	mov	esi, 47	#,
	mov	rdi, rax	#, tmp82
	call	ParseMatch	#
# parser/parser.h:96: 	return ( ParseNode ){ 0 };	
	.loc 12 96 9
	mov	rax, QWORD PTR -40[rbp]	# tmp83, .result_ptr
	pxor	xmm0, xmm0	# tmp84
	movups	XMMWORD PTR [rax], xmm0	# <retval>, tmp84
	movq	QWORD PTR 16[rax], xmm0	# <retval>, tmp84
# parser/parser.h:97: }
	.loc 12 97 1
	mov	rax, QWORD PTR -40[rbp]	#, .result_ptr
	leave	
	.cfi_def_cfa 7, 8
	ret	
	.cfi_endproc
.LFE85:
	.size	ParseDo, .-ParseDo
	.globl	ParseWhile
	.type	ParseWhile, @function
ParseWhile:
.LFB86:
	.loc 12 100 1
	.cfi_startproc
	endbr64	
	push	rbp	#
	.cfi_def_cfa_offset 16
	.cfi_offset 6, -16
	mov	rbp, rsp	#,
	.cfi_def_cfa_register 6
	sub	rsp, 48	#,
	mov	QWORD PTR -40[rbp], rdi	# .result_ptr, .result_ptr
	mov	QWORD PTR -48[rbp], rsi	# parser, parser
# parser/parser.h:101: 	ParseMatch( parser, TK_WHILE );
	.loc 12 101 2
	mov	rax, QWORD PTR -48[rbp]	# tmp82, parser
	mov	esi, 48	#,
	mov	rdi, rax	#, tmp82
	call	ParseMatch	#
# parser/parser.h:102: 	return ( ParseNode ){ 0 };	
	.loc 12 102 9
	mov	rax, QWORD PTR -40[rbp]	# tmp83, .result_ptr
	pxor	xmm0, xmm0	# tmp84
	movups	XMMWORD PTR [rax], xmm0	# <retval>, tmp84
	movq	QWORD PTR 16[rax], xmm0	# <retval>, tmp84
# parser/parser.h:103: }
	.loc 12 103 1
	mov	rax, QWORD PTR -40[rbp]	#, .result_ptr
	leave	
	.cfi_def_cfa 7, 8
	ret	
	.cfi_endproc
.LFE86:
	.size	ParseWhile, .-ParseWhile
	.globl	ParseFunc
	.type	ParseFunc, @function
ParseFunc:
.LFB87:
	.loc 12 106 1
	.cfi_startproc
	endbr64	
	push	rbp	#
	.cfi_def_cfa_offset 16
	.cfi_offset 6, -16
	mov	rbp, rsp	#,
	.cfi_def_cfa_register 6
	sub	rsp, 96	#,
	mov	QWORD PTR -40[rbp], rdi	# .result_ptr, .result_ptr
	mov	QWORD PTR -48[rbp], rsi	# parser, parser
	mov	QWORD PTR -56[rbp], rdx	# name, name
# parser/parser.h:106: {
	.loc 12 106 1
	mov	rax, QWORD PTR fs:40	# tmp93, MEM[(<address-space-1> long unsigned int *)40B]
	mov	QWORD PTR -8[rbp], rax	# D.6644, tmp93
	xor	eax, eax	# tmp93
# parser/parser.h:107: 	ParseMatch( parser, TK_LP );
	.loc 12 107 2
	mov	rax, QWORD PTR -48[rbp]	# tmp84, parser
	mov	esi, 36	#,
	mov	rdi, rax	#, tmp84
	call	ParseMatch	#
# parser/parser.h:109: 	ParseMatch( parser, TK_RP );
	.loc 12 109 2
	mov	rax, QWORD PTR -48[rbp]	# tmp85, parser
	mov	esi, 37	#,
	mov	rdi, rax	#, tmp85
	call	ParseMatch	#
# parser/parser.h:110: 	while( parser->token.type && parser->token.type != TK_END )
	.loc 12 110 7
	jmp	.L317	#
.L319:
# parser/parser.h:112: 		ParseStmt( parser );
	.loc 12 112 3
	lea	rax, -96[rbp]	# tmp86,
	mov	rdx, QWORD PTR -48[rbp]	# tmp87, parser
	mov	rsi, rdx	#, tmp87
	mov	rdi, rax	#, tmp86
	call	ParseStmt	#
.L317:
# parser/parser.h:110: 	while( parser->token.type && parser->token.type != TK_END )
	.loc 12 110 22
	mov	rax, QWORD PTR -48[rbp]	# tmp88, parser
	mov	eax, DWORD PTR [rax]	# _1, parser_5(D)->token.type
# parser/parser.h:110: 	while( parser->token.type && parser->token.type != TK_END )
	.loc 12 110 28
	test	eax, eax	# _1
	je	.L318	#,
# parser/parser.h:110: 	while( parser->token.type && parser->token.type != TK_END )
	.loc 12 110 44 discriminator 1
	mov	rax, QWORD PTR -48[rbp]	# tmp89, parser
	mov	eax, DWORD PTR [rax]	# _2, parser_5(D)->token.type
# parser/parser.h:110: 	while( parser->token.type && parser->token.type != TK_END )
	.loc 12 110 28 discriminator 1
	cmp	eax, 51	# _2,
	jne	.L319	#,
.L318:
# parser/parser.h:114: 	ParseMatch( parser, TK_END );
	.loc 12 114 2
	mov	rax, QWORD PTR -48[rbp]	# tmp90, parser
	mov	esi, 51	#,
	mov	rdi, rax	#, tmp90
	call	ParseMatch	#
# parser/parser.h:115: 	return ( ParseNode ){ 0 };
	.loc 12 115 9
	mov	rax, QWORD PTR -40[rbp]	# tmp91, .result_ptr
	pxor	xmm0, xmm0	# tmp92
	movups	XMMWORD PTR [rax], xmm0	# <retval>, tmp92
	movq	QWORD PTR 16[rax], xmm0	# <retval>, tmp92
# parser/parser.h:116: }
	.loc 12 116 1
	mov	rax, QWORD PTR -8[rbp]	# tmp94, D.6644
	sub	rax, QWORD PTR fs:40	# tmp94, MEM[(<address-space-1> long unsigned int *)40B]
	je	.L321	#,
	call	__stack_chk_fail@PLT	#
.L321:
	mov	rax, QWORD PTR -40[rbp]	#, .result_ptr
	leave	
	.cfi_def_cfa 7, 8
	ret	
	.cfi_endproc
.LFE87:
	.size	ParseFunc, .-ParseFunc
	.globl	ParseId
	.type	ParseId, @function
ParseId:
.LFB88:
	.loc 12 119 1
	.cfi_startproc
	endbr64	
	push	rbp	#
	.cfi_def_cfa_offset 16
	.cfi_offset 6, -16
	mov	rbp, rsp	#,
	.cfi_def_cfa_register 6
	sub	rsp, 64	#,
	mov	QWORD PTR -56[rbp], rdi	# .result_ptr, .result_ptr
	mov	QWORD PTR -64[rbp], rsi	# parser, parser
# parser/parser.h:119: {
	.loc 12 119 1
	mov	rax, QWORD PTR fs:40	# tmp98, MEM[(<address-space-1> long unsigned int *)40B]
	mov	QWORD PTR -8[rbp], rax	# D.6647, tmp98
	xor	eax, eax	# tmp98
# parser/parser.h:120: 	String* name = parser->token.value.str;
	.loc 12 120 10
	mov	rax, QWORD PTR -64[rbp]	# tmp83, parser
	mov	rax, QWORD PTR 16[rax]	# tmp84, parser_4(D)->token.value.D.4160.str
	mov	QWORD PTR -40[rbp], rax	# name, tmp84
# parser/parser.h:121: 	ParseMatch( parser, TK_ID );
	.loc 12 121 2
	mov	rax, QWORD PTR -64[rbp]	# tmp85, parser
	mov	esi, 57	#,
	mov	rdi, rax	#, tmp85
	call	ParseMatch	#
# parser/parser.h:122: 	ParseMatch( parser, TK_COLON );
	.loc 12 122 2
	mov	rax, QWORD PTR -64[rbp]	# tmp86, parser
	mov	esi, 49	#,
	mov	rdi, rax	#, tmp86
	call	ParseMatch	#
# parser/parser.h:123: 	if( parser->token.type == TK_LP ){ return ParseFunc( parser, name ); }
	.loc 12 123 19
	mov	rax, QWORD PTR -64[rbp]	# tmp87, parser
	mov	eax, DWORD PTR [rax]	# _1, parser_4(D)->token.type
# parser/parser.h:123: 	if( parser->token.type == TK_LP ){ return ParseFunc( parser, name ); }
	.loc 12 123 4
	cmp	eax, 36	# _1,
	jne	.L323	#,
# parser/parser.h:123: 	if( parser->token.type == TK_LP ){ return ParseFunc( parser, name ); }
	.loc 12 123 44 discriminator 1
	mov	rax, QWORD PTR -56[rbp]	# tmp88, .result_ptr
	mov	rdx, QWORD PTR -40[rbp]	# tmp89, name
	mov	rcx, QWORD PTR -64[rbp]	# tmp90, parser
	mov	rsi, rcx	#, tmp90
	mov	rdi, rax	#, tmp88
	call	ParseFunc	#
# parser/parser.h:123: 	if( parser->token.type == TK_LP ){ return ParseFunc( parser, name ); }
	.loc 12 123 44 is_stmt 0
	jmp	.L325	#
.L323:
# parser/parser.h:124: 	ParseNode rhs = ParseExpr( parser, PREC_NONE );
	.loc 12 124 18 is_stmt 1
	lea	rax, -32[rbp]	# tmp91,
	mov	rcx, QWORD PTR -64[rbp]	# tmp92, parser
	mov	edx, 0	#,
	mov	rsi, rcx	#, tmp92
	mov	rdi, rax	#, tmp91
	call	ParseExpr	#
# parser/parser.h:125: 	CompileAssign( name, &rhs );
	.loc 12 125 2
	lea	rdx, -32[rbp]	# tmp93,
	mov	rax, QWORD PTR -40[rbp]	# tmp94, name
	mov	rsi, rdx	#, tmp93
	mov	rdi, rax	#, tmp94
	call	CompileAssign	#
# parser/parser.h:126: 	return rhs;
	.loc 12 126 9
	mov	rcx, QWORD PTR -56[rbp]	# tmp95, .result_ptr
	mov	rax, QWORD PTR -32[rbp]	# tmp96, rhs
	mov	rdx, QWORD PTR -24[rbp]	#, rhs
	mov	QWORD PTR [rcx], rax	# <retval>, tmp96
	mov	QWORD PTR 8[rcx], rdx	# <retval>,
	mov	rax, QWORD PTR -16[rbp]	# tmp97, rhs
	mov	QWORD PTR 16[rcx], rax	# <retval>, tmp97
.L325:
# parser/parser.h:127: }
	.loc 12 127 1
	mov	rax, QWORD PTR -8[rbp]	# tmp99, D.6647
	sub	rax, QWORD PTR fs:40	# tmp99, MEM[(<address-space-1> long unsigned int *)40B]
	je	.L326	#,
	call	__stack_chk_fail@PLT	#
.L326:
	mov	rax, QWORD PTR -56[rbp]	#, .result_ptr
	leave	
	.cfi_def_cfa 7, 8
	ret	
	.cfi_endproc
.LFE88:
	.size	ParseId, .-ParseId
	.globl	ParseEos
	.type	ParseEos, @function
ParseEos:
.LFB89:
	.loc 12 132 1
	.cfi_startproc
	endbr64	
	push	rbp	#
	.cfi_def_cfa_offset 16
	.cfi_offset 6, -16
	mov	rbp, rsp	#,
	.cfi_def_cfa_register 6
	mov	QWORD PTR -40[rbp], rdi	# .result_ptr, .result_ptr
	mov	QWORD PTR -48[rbp], rsi	# parser, parser
# parser/parser.h:133: 	return ( ParseNode ){ 0 };
	.loc 12 133 9
	mov	rax, QWORD PTR -40[rbp]	# tmp82, .result_ptr
	pxor	xmm0, xmm0	# tmp83
	movups	XMMWORD PTR [rax], xmm0	# <retval>, tmp83
	movq	QWORD PTR 16[rax], xmm0	# <retval>, tmp83
# parser/parser.h:134: }
	.loc 12 134 1
	mov	rax, QWORD PTR -40[rbp]	#, .result_ptr
	pop	rbp	#
	.cfi_def_cfa 7, 8
	ret	
	.cfi_endproc
.LFE89:
	.size	ParseEos, .-ParseEos
	.section	.rodata
.LC8:
	.string	"Illegal operation: %d\n"
	.text
	.globl	ParseErr
	.type	ParseErr, @function
ParseErr:
.LFB90:
	.loc 12 137 1
	.cfi_startproc
	endbr64	
	push	rbp	#
	.cfi_def_cfa_offset 16
	.cfi_offset 6, -16
	mov	rbp, rsp	#,
	.cfi_def_cfa_register 6
	sub	rsp, 48	#,
	mov	QWORD PTR -40[rbp], rdi	# .result_ptr, .result_ptr
	mov	QWORD PTR -48[rbp], rsi	# parser, parser
# parser/parser.h:138: 	Throw( "Illegal operation: %d\n", parser->token.type );
	.loc 12 138 49
	mov	rax, QWORD PTR -48[rbp]	# tmp83, parser
	mov	eax, DWORD PTR [rax]	# _1, parser_3(D)->token.type
# parser/parser.h:138: 	Throw( "Illegal operation: %d\n", parser->token.type );
	.loc 12 138 2
	mov	esi, eax	#, _1
	lea	rax, .LC8[rip]	# tmp84,
	mov	rdi, rax	#, tmp84
	mov	eax, 0	#,
	call	Throw	#
# parser/parser.h:139: 	return ( ParseNode ){ 0 };
	.loc 12 139 9
	mov	rax, QWORD PTR -40[rbp]	# tmp85, .result_ptr
	pxor	xmm0, xmm0	# tmp86
	movups	XMMWORD PTR [rax], xmm0	# <retval>, tmp86
	movq	QWORD PTR 16[rax], xmm0	# <retval>, tmp86
# parser/parser.h:140: }
	.loc 12 140 1
	mov	rax, QWORD PTR -40[rbp]	#, .result_ptr
	leave	
	.cfi_def_cfa 7, 8
	ret	
	.cfi_endproc
.LFE90:
	.size	ParseErr, .-ParseErr
	.globl	ParseUnary
	.type	ParseUnary, @function
ParseUnary:
.LFB91:
	.loc 12 143 1
	.cfi_startproc
	endbr64	
	push	rbp	#
	.cfi_def_cfa_offset 16
	.cfi_offset 6, -16
	mov	rbp, rsp	#,
	.cfi_def_cfa_register 6
	sub	rsp, 80	#,
	mov	QWORD PTR -56[rbp], rdi	# .result_ptr, .result_ptr
	mov	QWORD PTR -64[rbp], rsi	# parser, parser
	mov	DWORD PTR -68[rbp], edx	# cur, cur
# parser/parser.h:143: {
	.loc 12 143 1
	mov	rax, QWORD PTR fs:40	# tmp93, MEM[(<address-space-1> long unsigned int *)40B]
	mov	QWORD PTR -8[rbp], rax	# D.6654, tmp93
	xor	eax, eax	# tmp93
# parser/parser.h:144: 	TokenType op = parser->token.type;
	.loc 12 144 12
	mov	rax, QWORD PTR -64[rbp]	# tmp83, parser
	mov	eax, DWORD PTR [rax]	# tmp84, parser_3(D)->token.type
	mov	DWORD PTR -36[rbp], eax	# op, tmp84
# parser/parser.h:145: 	ParseMatch( parser, parser->token.type ); /* op */
	.loc 12 145 2
	mov	rax, QWORD PTR -64[rbp]	# tmp85, parser
	mov	edx, DWORD PTR [rax]	# _1, parser_3(D)->token.type
	mov	rax, QWORD PTR -64[rbp]	# tmp86, parser
	mov	esi, edx	#, _1
	mov	rdi, rax	#, tmp86
	call	ParseMatch	#
# parser/parser.h:146: 	ParseNode rhs = ParseExpr( parser, cur );
	.loc 12 146 18
	lea	rax, -32[rbp]	# tmp87,
	mov	edx, DWORD PTR -68[rbp]	# tmp88, cur
	mov	rcx, QWORD PTR -64[rbp]	# tmp89, parser
	mov	rsi, rcx	#, tmp89
	mov	rdi, rax	#, tmp87
	call	ParseExpr	#
# parser/parser.h:147: 	return CompileUna( op, &rhs );
	.loc 12 147 9
	mov	rax, QWORD PTR -56[rbp]	# tmp90, .result_ptr
	lea	rdx, -32[rbp]	# tmp91,
	mov	ecx, DWORD PTR -36[rbp]	# tmp92, op
	mov	esi, ecx	#, tmp92
	mov	rdi, rax	#, tmp90
	call	CompileUna	#
# parser/parser.h:148: }
	.loc 12 148 1
	mov	rax, QWORD PTR -8[rbp]	# tmp94, D.6654
	sub	rax, QWORD PTR fs:40	# tmp94, MEM[(<address-space-1> long unsigned int *)40B]
	je	.L333	#,
	call	__stack_chk_fail@PLT	#
.L333:
	mov	rax, QWORD PTR -56[rbp]	#, .result_ptr
	leave	
	.cfi_def_cfa 7, 8
	ret	
	.cfi_endproc
.LFE91:
	.size	ParseUnary, .-ParseUnary
	.globl	ParseBinary
	.type	ParseBinary, @function
ParseBinary:
.LFB92:
	.loc 12 151 1
	.cfi_startproc
	endbr64	
	push	rbp	#
	.cfi_def_cfa_offset 16
	.cfi_offset 6, -16
	mov	rbp, rsp	#,
	.cfi_def_cfa_register 6
	sub	rsp, 80	#,
	mov	QWORD PTR -56[rbp], rdi	# .result_ptr, .result_ptr
	mov	QWORD PTR -64[rbp], rsi	# parser, parser
	mov	QWORD PTR -72[rbp], rdx	# lhs, lhs
	mov	DWORD PTR -76[rbp], ecx	# cur, cur
# parser/parser.h:151: {
	.loc 12 151 1
	mov	rax, QWORD PTR fs:40	# tmp94, MEM[(<address-space-1> long unsigned int *)40B]
	mov	QWORD PTR -8[rbp], rax	# D.6658, tmp94
	xor	eax, eax	# tmp94
# parser/parser.h:152: 	TokenType op = parser->token.type;
	.loc 12 152 12
	mov	rax, QWORD PTR -64[rbp]	# tmp83, parser
	mov	eax, DWORD PTR [rax]	# tmp84, parser_3(D)->token.type
	mov	DWORD PTR -36[rbp], eax	# op, tmp84
# parser/parser.h:153: 	ParseMatch( parser, parser->token.type ); /* op */
	.loc 12 153 2
	mov	rax, QWORD PTR -64[rbp]	# tmp85, parser
	mov	edx, DWORD PTR [rax]	# _1, parser_3(D)->token.type
	mov	rax, QWORD PTR -64[rbp]	# tmp86, parser
	mov	esi, edx	#, _1
	mov	rdi, rax	#, tmp86
	call	ParseMatch	#
# parser/parser.h:154: 	ParseNode rhs = ParseExpr( parser, cur );
	.loc 12 154 18
	lea	rax, -32[rbp]	# tmp87,
	mov	edx, DWORD PTR -76[rbp]	# tmp88, cur
	mov	rcx, QWORD PTR -64[rbp]	# tmp89, parser
	mov	rsi, rcx	#, tmp89
	mov	rdi, rax	#, tmp87
	call	ParseExpr	#
# parser/parser.h:155: 	return CompileBin( lhs, op, &rhs );
	.loc 12 155 9
	mov	rax, QWORD PTR -56[rbp]	# tmp90, .result_ptr
	lea	rcx, -32[rbp]	# tmp91,
	mov	edx, DWORD PTR -36[rbp]	# tmp92, op
	mov	rsi, QWORD PTR -72[rbp]	# tmp93, lhs
	mov	rdi, rax	#, tmp90
	call	CompileBin	#
# parser/parser.h:156: }
	.loc 12 156 1
	mov	rax, QWORD PTR -8[rbp]	# tmp95, D.6658
	sub	rax, QWORD PTR fs:40	# tmp95, MEM[(<address-space-1> long unsigned int *)40B]
	je	.L336	#,
	call	__stack_chk_fail@PLT	#
.L336:
	mov	rax, QWORD PTR -56[rbp]	#, .result_ptr
	leave	
	.cfi_def_cfa 7, 8
	ret	
	.cfi_endproc
.LFE92:
	.size	ParseBinary, .-ParseBinary
	.globl	ParseGroup
	.type	ParseGroup, @function
ParseGroup:
.LFB93:
	.loc 12 159 1
	.cfi_startproc
	endbr64	
	push	rbp	#
	.cfi_def_cfa_offset 16
	.cfi_offset 6, -16
	mov	rbp, rsp	#,
	.cfi_def_cfa_register 6
	sub	rsp, 48	#,
	mov	QWORD PTR -40[rbp], rdi	# .result_ptr, .result_ptr
	mov	QWORD PTR -48[rbp], rsi	# parser, parser
# parser/parser.h:159: {
	.loc 12 159 1
	mov	rax, QWORD PTR fs:40	# tmp89, MEM[(<address-space-1> long unsigned int *)40B]
	mov	QWORD PTR -8[rbp], rax	# D.6662, tmp89
	xor	eax, eax	# tmp89
# parser/parser.h:160: 	ParseMatch( parser, TK_LP );
	.loc 12 160 2
	mov	rax, QWORD PTR -48[rbp]	# tmp82, parser
	mov	esi, 36	#,
	mov	rdi, rax	#, tmp82
	call	ParseMatch	#
# parser/parser.h:161: 	ParseNode node = ParseExpr( parser, PREC_NONE );
	.loc 12 161 19
	lea	rax, -32[rbp]	# tmp83,
	mov	rcx, QWORD PTR -48[rbp]	# tmp84, parser
	mov	edx, 0	#,
	mov	rsi, rcx	#, tmp84
	mov	rdi, rax	#, tmp83
	call	ParseExpr	#
# parser/parser.h:162: 	ParseMatch( parser, TK_RP );
	.loc 12 162 2
	mov	rax, QWORD PTR -48[rbp]	# tmp85, parser
	mov	esi, 37	#,
	mov	rdi, rax	#, tmp85
	call	ParseMatch	#
# parser/parser.h:163: 	return node;
	.loc 12 163 9
	mov	rcx, QWORD PTR -40[rbp]	# tmp86, .result_ptr
	mov	rax, QWORD PTR -32[rbp]	# tmp87, node
	mov	rdx, QWORD PTR -24[rbp]	#, node
	mov	QWORD PTR [rcx], rax	# <retval>, tmp87
	mov	QWORD PTR 8[rcx], rdx	# <retval>,
	mov	rax, QWORD PTR -16[rbp]	# tmp88, node
	mov	QWORD PTR 16[rcx], rax	# <retval>, tmp88
# parser/parser.h:164: }
	.loc 12 164 1
	mov	rax, QWORD PTR -8[rbp]	# tmp90, D.6662
	sub	rax, QWORD PTR fs:40	# tmp90, MEM[(<address-space-1> long unsigned int *)40B]
	je	.L339	#,
	call	__stack_chk_fail@PLT	#
.L339:
	mov	rax, QWORD PTR -40[rbp]	#, .result_ptr
	leave	
	.cfi_def_cfa 7, 8
	ret	
	.cfi_endproc
.LFE93:
	.size	ParseGroup, .-ParseGroup
	.globl	ParseCall
	.type	ParseCall, @function
ParseCall:
.LFB94:
	.loc 12 167 1
	.cfi_startproc
	endbr64	
	push	rbp	#
	.cfi_def_cfa_offset 16
	.cfi_offset 6, -16
	mov	rbp, rsp	#,
	.cfi_def_cfa_register 6
	sub	rsp, 64	#,
	mov	QWORD PTR -56[rbp], rdi	# .result_ptr, .result_ptr
	mov	QWORD PTR -64[rbp], rsi	# parser, parser
# parser/parser.h:168: 	String* name = parser->token.value.str;
	.loc 12 168 10
	mov	rax, QWORD PTR -64[rbp]	# tmp82, parser
	mov	rax, QWORD PTR 16[rax]	# tmp83, parser_2(D)->token.value.D.4160.str
	mov	QWORD PTR -40[rbp], rax	# name, tmp83
# parser/parser.h:169: 	ParseMatch( parser, TK_ID );
	.loc 12 169 2
	mov	rax, QWORD PTR -64[rbp]	# tmp84, parser
	mov	esi, 57	#,
	mov	rdi, rax	#, tmp84
	call	ParseMatch	#
# parser/parser.h:170: 	ParseMatch( parser, TK_LP );
	.loc 12 170 2
	mov	rax, QWORD PTR -64[rbp]	# tmp85, parser
	mov	esi, 36	#,
	mov	rdi, rax	#, tmp85
	call	ParseMatch	#
# parser/parser.h:172: 	ParseMatch( parser, TK_RP );
	.loc 12 172 2
	mov	rax, QWORD PTR -64[rbp]	# tmp86, parser
	mov	esi, 37	#,
	mov	rdi, rax	#, tmp86
	call	ParseMatch	#
# parser/parser.h:173: 	return ( ParseNode ){ 0 };
	.loc 12 173 9
	mov	rax, QWORD PTR -56[rbp]	# tmp87, .result_ptr
	pxor	xmm0, xmm0	# tmp88
	movups	XMMWORD PTR [rax], xmm0	# <retval>, tmp88
	movq	QWORD PTR 16[rax], xmm0	# <retval>, tmp88
# parser/parser.h:174: }
	.loc 12 174 1
	mov	rax, QWORD PTR -56[rbp]	#, .result_ptr
	leave	
	.cfi_def_cfa 7, 8
	ret	
	.cfi_endproc
.LFE94:
	.size	ParseCall, .-ParseCall
	.globl	ParseI64
	.type	ParseI64, @function
ParseI64:
.LFB95:
	.loc 12 177 1
	.cfi_startproc
	endbr64	
	push	rbp	#
	.cfi_def_cfa_offset 16
	.cfi_offset 6, -16
	mov	rbp, rsp	#,
	.cfi_def_cfa_register 6
	sub	rsp, 48	#,
	mov	QWORD PTR -40[rbp], rdi	# .result_ptr, .result_ptr
	mov	QWORD PTR -48[rbp], rsi	# parser, parser
# parser/parser.h:178: 	ParseNode node = { .type = PT_CONST, .value.type = VALUE_I64 };
	.loc 12 178 12
	pxor	xmm0, xmm0	# tmp83
	movaps	XMMWORD PTR -32[rbp], xmm0	# node, tmp83
	movq	QWORD PTR -16[rbp], xmm0	# node, tmp83
# parser/parser.h:179: 	node.value.i64 = parser->token.value.i64;
	.loc 12 179 38
	mov	rax, QWORD PTR -48[rbp]	# tmp84, parser
	mov	rax, QWORD PTR 16[rax]	# _1, parser_4(D)->token.value.D.4160.i64
# parser/parser.h:179: 	node.value.i64 = parser->token.value.i64;
	.loc 12 179 17
	mov	QWORD PTR -16[rbp], rax	# node.value.D.4160.i64, _1
# parser/parser.h:180: 	ParseMatch( parser, TK_I64 );
	.loc 12 180 2
	mov	rax, QWORD PTR -48[rbp]	# tmp85, parser
	mov	esi, 54	#,
	mov	rdi, rax	#, tmp85
	call	ParseMatch	#
# parser/parser.h:181: 	return node;
	.loc 12 181 9
	mov	rcx, QWORD PTR -40[rbp]	# tmp86, .result_ptr
	mov	rax, QWORD PTR -32[rbp]	# tmp87, node
	mov	rdx, QWORD PTR -24[rbp]	#, node
	mov	QWORD PTR [rcx], rax	# <retval>, tmp87
	mov	QWORD PTR 8[rcx], rdx	# <retval>,
	mov	rax, QWORD PTR -16[rbp]	# tmp88, node
	mov	QWORD PTR 16[rcx], rax	# <retval>, tmp88
# parser/parser.h:182: }
	.loc 12 182 1
	mov	rax, QWORD PTR -40[rbp]	#, .result_ptr
	leave	
	.cfi_def_cfa 7, 8
	ret	
	.cfi_endproc
.LFE95:
	.size	ParseI64, .-ParseI64
	.globl	ParseF64
	.type	ParseF64, @function
ParseF64:
.LFB96:
	.loc 12 185 1
	.cfi_startproc
	endbr64	
	push	rbp	#
	.cfi_def_cfa_offset 16
	.cfi_offset 6, -16
	mov	rbp, rsp	#,
	.cfi_def_cfa_register 6
	sub	rsp, 48	#,
	mov	QWORD PTR -40[rbp], rdi	# .result_ptr, .result_ptr
	mov	QWORD PTR -48[rbp], rsi	# parser, parser
# parser/parser.h:186: 	ParseNode node = { .type = PT_CONST, .value.type = VALUE_F64 };
	.loc 12 186 12
	pxor	xmm0, xmm0	# tmp83
	movaps	XMMWORD PTR -32[rbp], xmm0	# node, tmp83
	movq	QWORD PTR -16[rbp], xmm0	# node, tmp83
	mov	DWORD PTR -24[rbp], 1	# node.value.type,
# parser/parser.h:187: 	node.value.f64 = parser->token.value.f64;
	.loc 12 187 38
	mov	rax, QWORD PTR -48[rbp]	# tmp84, parser
	movsd	xmm0, QWORD PTR 16[rax]	# _1, parser_5(D)->token.value.D.4160.f64
# parser/parser.h:187: 	node.value.f64 = parser->token.value.f64;
	.loc 12 187 17
	movsd	QWORD PTR -16[rbp], xmm0	# node.value.D.4160.f64, _1
# parser/parser.h:188: 	ParseMatch( parser, TK_F64 );
	.loc 12 188 2
	mov	rax, QWORD PTR -48[rbp]	# tmp85, parser
	mov	esi, 55	#,
	mov	rdi, rax	#, tmp85
	call	ParseMatch	#
# parser/parser.h:189: 	return node;
	.loc 12 189 9
	mov	rcx, QWORD PTR -40[rbp]	# tmp86, .result_ptr
	mov	rax, QWORD PTR -32[rbp]	# tmp87, node
	mov	rdx, QWORD PTR -24[rbp]	#, node
	mov	QWORD PTR [rcx], rax	# <retval>, tmp87
	mov	QWORD PTR 8[rcx], rdx	# <retval>,
	mov	rax, QWORD PTR -16[rbp]	# tmp88, node
	mov	QWORD PTR 16[rcx], rax	# <retval>, tmp88
# parser/parser.h:190: }
	.loc 12 190 1
	mov	rax, QWORD PTR -40[rbp]	#, .result_ptr
	leave	
	.cfi_def_cfa 7, 8
	ret	
	.cfi_endproc
.LFE96:
	.size	ParseF64, .-ParseF64
	.globl	ParseStr
	.type	ParseStr, @function
ParseStr:
.LFB97:
	.loc 12 193 1
	.cfi_startproc
	endbr64	
	push	rbp	#
	.cfi_def_cfa_offset 16
	.cfi_offset 6, -16
	mov	rbp, rsp	#,
	.cfi_def_cfa_register 6
	sub	rsp, 48	#,
	mov	QWORD PTR -40[rbp], rdi	# .result_ptr, .result_ptr
	mov	QWORD PTR -48[rbp], rsi	# parser, parser
# parser/parser.h:194: 	ParseNode node = { .type = PT_CONST, .value.type = VALUE_STR };
	.loc 12 194 12
	pxor	xmm0, xmm0	# tmp83
	movaps	XMMWORD PTR -32[rbp], xmm0	# node, tmp83
	movq	QWORD PTR -16[rbp], xmm0	# node, tmp83
	mov	DWORD PTR -24[rbp], 2	# node.value.type,
# parser/parser.h:195: 	node.value.str = parser->token.value.str;
	.loc 12 195 38
	mov	rax, QWORD PTR -48[rbp]	# tmp84, parser
	mov	rax, QWORD PTR 16[rax]	# _1, parser_5(D)->token.value.D.4160.str
# parser/parser.h:195: 	node.value.str = parser->token.value.str;
	.loc 12 195 17
	mov	QWORD PTR -16[rbp], rax	# node.value.D.4160.str, _1
# parser/parser.h:196: 	ParseMatch( parser, TK_STR );
	.loc 12 196 2
	mov	rax, QWORD PTR -48[rbp]	# tmp85, parser
	mov	esi, 56	#,
	mov	rdi, rax	#, tmp85
	call	ParseMatch	#
# parser/parser.h:197: 	return node;
	.loc 12 197 9
	mov	rcx, QWORD PTR -40[rbp]	# tmp86, .result_ptr
	mov	rax, QWORD PTR -32[rbp]	# tmp87, node
	mov	rdx, QWORD PTR -24[rbp]	#, node
	mov	QWORD PTR [rcx], rax	# <retval>, tmp87
	mov	QWORD PTR 8[rcx], rdx	# <retval>,
	mov	rax, QWORD PTR -16[rbp]	# tmp88, node
	mov	QWORD PTR 16[rcx], rax	# <retval>, tmp88
# parser/parser.h:198: }
	.loc 12 198 1
	mov	rax, QWORD PTR -40[rbp]	#, .result_ptr
	leave	
	.cfi_def_cfa 7, 8
	ret	
	.cfi_endproc
.LFE97:
	.size	ParseStr, .-ParseStr
	.globl	ParseRef
	.type	ParseRef, @function
ParseRef:
.LFB98:
	.loc 12 201 1
	.cfi_startproc
	endbr64	
	push	rbp	#
	.cfi_def_cfa_offset 16
	.cfi_offset 6, -16
	mov	rbp, rsp	#,
	.cfi_def_cfa_register 6
	sub	rsp, 48	#,
	mov	QWORD PTR -40[rbp], rdi	# .result_ptr, .result_ptr
	mov	QWORD PTR -48[rbp], rsi	# parser, parser
# parser/parser.h:202: 	ParseNode node = { .type = PT_REF, .value.type = VALUE_STR };
	.loc 12 202 12
	pxor	xmm0, xmm0	# tmp83
	movaps	XMMWORD PTR -32[rbp], xmm0	# node, tmp83
	movq	QWORD PTR -16[rbp], xmm0	# node, tmp83
	mov	DWORD PTR -32[rbp], 1	# node.type,
	mov	DWORD PTR -24[rbp], 2	# node.value.type,
# parser/parser.h:203: 	node.value.str = parser->token.value.str;
	.loc 12 203 38
	mov	rax, QWORD PTR -48[rbp]	# tmp84, parser
	mov	rax, QWORD PTR 16[rax]	# _1, parser_6(D)->token.value.D.4160.str
# parser/parser.h:203: 	node.value.str = parser->token.value.str;
	.loc 12 203 17
	mov	QWORD PTR -16[rbp], rax	# node.value.D.4160.str, _1
# parser/parser.h:204: 	ParseMatch( parser, TK_ID );
	.loc 12 204 2
	mov	rax, QWORD PTR -48[rbp]	# tmp85, parser
	mov	esi, 57	#,
	mov	rdi, rax	#, tmp85
	call	ParseMatch	#
# parser/parser.h:205: 	return node;
	.loc 12 205 9
	mov	rcx, QWORD PTR -40[rbp]	# tmp86, .result_ptr
	mov	rax, QWORD PTR -32[rbp]	# tmp87, node
	mov	rdx, QWORD PTR -24[rbp]	#, node
	mov	QWORD PTR [rcx], rax	# <retval>, tmp87
	mov	QWORD PTR 8[rcx], rdx	# <retval>,
	mov	rax, QWORD PTR -16[rbp]	# tmp88, node
	mov	QWORD PTR 16[rcx], rax	# <retval>, tmp88
# parser/parser.h:206: }
	.loc 12 206 1
	mov	rax, QWORD PTR -40[rbp]	#, .result_ptr
	leave	
	.cfi_def_cfa 7, 8
	ret	
	.cfi_endproc
.LFE98:
	.size	ParseRef, .-ParseRef
	.globl	ParseExpr
	.type	ParseExpr, @function
ParseExpr:
.LFB99:
	.loc 12 209 1
	.cfi_startproc
	endbr64	
	push	rbp	#
	.cfi_def_cfa_offset 16
	.cfi_offset 6, -16
	mov	rbp, rsp	#,
	.cfi_def_cfa_register 6
	sub	rsp, 112	#,
	mov	QWORD PTR -56[rbp], rdi	# .result_ptr, .result_ptr
	mov	QWORD PTR -64[rbp], rsi	# parser, parser
	mov	DWORD PTR -68[rbp], edx	# prec, prec
# parser/parser.h:209: {
	.loc 12 209 1
	mov	rax, QWORD PTR fs:40	# tmp150, MEM[(<address-space-1> long unsigned int *)40B]
	mov	QWORD PTR -8[rbp], rax	# D.6670, tmp150
	xor	eax, eax	# tmp150
# parser/parser.h:211: 	ParseRule *rule = &rules[ parser->token.type ];
	.loc 12 211 41
	mov	rax, QWORD PTR -64[rbp]	# tmp88, parser
	mov	eax, DWORD PTR [rax]	# _1, parser_13(D)->token.type
# parser/parser.h:211: 	ParseRule *rule = &rules[ parser->token.type ];
	.loc 12 211 13
	mov	edx, eax	# tmp89, _1
	mov	rax, rdx	# tmp90, tmp89
	add	rax, rax	# tmp90
	add	rax, rdx	# tmp90, tmp89
	sal	rax, 3	# tmp91,
	lea	rdx, rules.44[rip]	# tmp92,
	add	rax, rdx	# tmp93, tmp92
	mov	QWORD PTR -40[rbp], rax	# rule, tmp93
# parser/parser.h:212: 	ParseNode node = { 0 };
	.loc 12 212 12
	pxor	xmm0, xmm0	# tmp94
	movaps	XMMWORD PTR -32[rbp], xmm0	# node, tmp94
	movq	QWORD PTR -16[rbp], xmm0	# node, tmp94
# parser/parser.h:213: 	goto *rule->nud;
	.loc 12 213 12
	mov	rax, QWORD PTR -40[rbp]	# tmp95, rule
	mov	rax, QWORD PTR [rax]	# _2, rule_14->nud
# parser/parser.h:213: 	goto *rule->nud;
	.loc 12 213 2
	jmp	.L351	#
.L352:
# parser/parser.h:215: 		rule = &rules[ parser->token.type ];
	.loc 12 215 31
	mov	rax, QWORD PTR -64[rbp]	# tmp96, parser
	mov	eax, DWORD PTR [rax]	# _3, parser_13(D)->token.type
# parser/parser.h:215: 		rule = &rules[ parser->token.type ];
	.loc 12 215 8
	mov	edx, eax	# tmp97, _3
	mov	rax, rdx	# tmp98, tmp97
	add	rax, rax	# tmp98
	add	rax, rdx	# tmp98, tmp97
	sal	rax, 3	# tmp99,
	lea	rdx, rules.44[rip]	# tmp100,
	add	rax, rdx	# tmp101, tmp100
	mov	QWORD PTR -40[rbp], rax	# rule, tmp101
# parser/parser.h:216: 		if( rule->prec > prec ){ goto *rule->led; }
	.loc 12 216 11
	mov	rax, QWORD PTR -40[rbp]	# tmp102, rule
	mov	eax, DWORD PTR 16[rax]	# _4, rule_27->prec
# parser/parser.h:216: 		if( rule->prec > prec ){ goto *rule->led; }
	.loc 12 216 5
	cmp	DWORD PTR -68[rbp], eax	# prec, _4
	jnb	.L367	#,
# parser/parser.h:216: 		if( rule->prec > prec ){ goto *rule->led; }
	.loc 12 216 38 discriminator 1
	mov	rax, QWORD PTR -40[rbp]	# tmp103, rule
	mov	rax, QWORD PTR 8[rax]	# _2, rule_27->led
# parser/parser.h:216: 		if( rule->prec > prec ){ goto *rule->led; }
	.loc 12 216 28
	jmp	.L351	#
.L355:
	endbr64	
# parser/expr_labels.h:1: EOS: node = ParseEos( parser ); goto LED;
	.file 13 "parser/expr_labels.h"
	.loc 13 1 13
	lea	rax, -112[rbp]	# tmp104,
	mov	rdx, QWORD PTR -64[rbp]	# tmp105, parser
	mov	rsi, rdx	#, tmp105
	mov	rdi, rax	#, tmp104
	call	ParseEos	#
	mov	rax, QWORD PTR -112[rbp]	# tmp106,
	mov	rdx, QWORD PTR -104[rbp]	#,
	mov	QWORD PTR -32[rbp], rax	# node, tmp106
	mov	QWORD PTR -24[rbp], rdx	# node,
	mov	rax, QWORD PTR -96[rbp]	# tmp107,
	mov	QWORD PTR -16[rbp], rax	# node, tmp107
# parser/expr_labels.h:1: EOS: node = ParseEos( parser ); goto LED;
	.loc 13 1 33
	jmp	.L352	#
.L351:
	jmp	rax	# _2
.L356:
	endbr64	
# parser/expr_labels.h:2: ERR: node = ParseErr( parser ); goto LED;
	.loc 13 2 13
	lea	rax, -112[rbp]	# tmp108,
	mov	rdx, QWORD PTR -64[rbp]	# tmp109, parser
	mov	rsi, rdx	#, tmp109
	mov	rdi, rax	#, tmp108
	call	ParseErr	#
	mov	rax, QWORD PTR -112[rbp]	# tmp110,
	mov	rdx, QWORD PTR -104[rbp]	#,
	mov	QWORD PTR -32[rbp], rax	# node, tmp110
	mov	QWORD PTR -24[rbp], rdx	# node,
	mov	rax, QWORD PTR -96[rbp]	# tmp111,
	mov	QWORD PTR -16[rbp], rax	# node, tmp111
# parser/expr_labels.h:2: ERR: node = ParseErr( parser ); goto LED;
	.loc 13 2 33
	jmp	.L352	#
.L357:
	endbr64	
# parser/expr_labels.h:3: UNARY: node = ParseUnary( parser, rule->prec ); goto LED;
	.loc 13 3 15
	mov	rax, QWORD PTR -40[rbp]	# tmp112, rule
	mov	edx, DWORD PTR 16[rax]	# _6, rule_8->prec
	lea	rax, -112[rbp]	# tmp113,
	mov	rcx, QWORD PTR -64[rbp]	# tmp114, parser
	mov	rsi, rcx	#, tmp114
	mov	rdi, rax	#, tmp113
	call	ParseUnary	#
	mov	rax, QWORD PTR -112[rbp]	# tmp115,
	mov	rdx, QWORD PTR -104[rbp]	#,
	mov	QWORD PTR -32[rbp], rax	# node, tmp115
	mov	QWORD PTR -24[rbp], rdx	# node,
	mov	rax, QWORD PTR -96[rbp]	# tmp116,
	mov	QWORD PTR -16[rbp], rax	# node, tmp116
# parser/expr_labels.h:3: UNARY: node = ParseUnary( parser, rule->prec ); goto LED;
	.loc 13 3 49
	jmp	.L352	#
.L358:
	endbr64	
# parser/expr_labels.h:4: BINARY: node = ParseBinary( parser, &node, rule->prec ); goto LED;
	.loc 13 4 16
	mov	rax, QWORD PTR -40[rbp]	# tmp117, rule
	mov	ecx, DWORD PTR 16[rax]	# _7, rule_8->prec
	lea	rax, -112[rbp]	# tmp118,
	lea	rdx, -32[rbp]	# tmp119,
	mov	rsi, QWORD PTR -64[rbp]	# tmp120, parser
	mov	rdi, rax	#, tmp118
	call	ParseBinary	#
	mov	rax, QWORD PTR -112[rbp]	# tmp121,
	mov	rdx, QWORD PTR -104[rbp]	#,
	mov	QWORD PTR -32[rbp], rax	# node, tmp121
	mov	QWORD PTR -24[rbp], rdx	# node,
	mov	rax, QWORD PTR -96[rbp]	# tmp122,
	mov	QWORD PTR -16[rbp], rax	# node, tmp122
# parser/expr_labels.h:4: BINARY: node = ParseBinary( parser, &node, rule->prec ); goto LED;
	.loc 13 4 58
	jmp	.L352	#
.L359:
	endbr64	
# parser/expr_labels.h:5: GROUP: node = ParseGroup( parser ); goto LED;
	.loc 13 5 15
	lea	rax, -112[rbp]	# tmp123,
	mov	rdx, QWORD PTR -64[rbp]	# tmp124, parser
	mov	rsi, rdx	#, tmp124
	mov	rdi, rax	#, tmp123
	call	ParseGroup	#
	mov	rax, QWORD PTR -112[rbp]	# tmp125,
	mov	rdx, QWORD PTR -104[rbp]	#,
	mov	QWORD PTR -32[rbp], rax	# node, tmp125
	mov	QWORD PTR -24[rbp], rdx	# node,
	mov	rax, QWORD PTR -96[rbp]	# tmp126,
	mov	QWORD PTR -16[rbp], rax	# node, tmp126
# parser/expr_labels.h:5: GROUP: node = ParseGroup( parser ); goto LED;
	.loc 13 5 37
	jmp	.L352	#
.L360:
	endbr64	
# parser/expr_labels.h:6: CALL: node = ParseCall( parser ); goto LED;
	.loc 13 6 14
	lea	rax, -112[rbp]	# tmp127,
	mov	rdx, QWORD PTR -64[rbp]	# tmp128, parser
	mov	rsi, rdx	#, tmp128
	mov	rdi, rax	#, tmp127
	call	ParseCall	#
	mov	rax, QWORD PTR -112[rbp]	# tmp129,
	mov	rdx, QWORD PTR -104[rbp]	#,
	mov	QWORD PTR -32[rbp], rax	# node, tmp129
	mov	QWORD PTR -24[rbp], rdx	# node,
	mov	rax, QWORD PTR -96[rbp]	# tmp130,
	mov	QWORD PTR -16[rbp], rax	# node, tmp130
# parser/expr_labels.h:6: CALL: node = ParseCall( parser ); goto LED;
	.loc 13 6 35
	jmp	.L352	#
.L361:
	endbr64	
# parser/expr_labels.h:7: I64: node = ParseI64( parser ); goto LED;
	.loc 13 7 13
	lea	rax, -112[rbp]	# tmp131,
	mov	rdx, QWORD PTR -64[rbp]	# tmp132, parser
	mov	rsi, rdx	#, tmp132
	mov	rdi, rax	#, tmp131
	call	ParseI64	#
	mov	rax, QWORD PTR -112[rbp]	# tmp133,
	mov	rdx, QWORD PTR -104[rbp]	#,
	mov	QWORD PTR -32[rbp], rax	# node, tmp133
	mov	QWORD PTR -24[rbp], rdx	# node,
	mov	rax, QWORD PTR -96[rbp]	# tmp134,
	mov	QWORD PTR -16[rbp], rax	# node, tmp134
# parser/expr_labels.h:7: I64: node = ParseI64( parser ); goto LED;
	.loc 13 7 33
	jmp	.L352	#
.L362:
	endbr64	
# parser/expr_labels.h:8: F64: node = ParseF64( parser ); goto LED; 
	.loc 13 8 13
	lea	rax, -112[rbp]	# tmp135,
	mov	rdx, QWORD PTR -64[rbp]	# tmp136, parser
	mov	rsi, rdx	#, tmp136
	mov	rdi, rax	#, tmp135
	call	ParseF64	#
	mov	rax, QWORD PTR -112[rbp]	# tmp137,
	mov	rdx, QWORD PTR -104[rbp]	#,
	mov	QWORD PTR -32[rbp], rax	# node, tmp137
	mov	QWORD PTR -24[rbp], rdx	# node,
	mov	rax, QWORD PTR -96[rbp]	# tmp138,
	mov	QWORD PTR -16[rbp], rax	# node, tmp138
# parser/expr_labels.h:8: F64: node = ParseF64( parser ); goto LED; 
	.loc 13 8 33
	jmp	.L352	#
.L363:
	endbr64	
# parser/expr_labels.h:9: STR: node = ParseStr( parser ); goto LED;
	.loc 13 9 13
	lea	rax, -112[rbp]	# tmp139,
	mov	rdx, QWORD PTR -64[rbp]	# tmp140, parser
	mov	rsi, rdx	#, tmp140
	mov	rdi, rax	#, tmp139
	call	ParseStr	#
	mov	rax, QWORD PTR -112[rbp]	# tmp141,
	mov	rdx, QWORD PTR -104[rbp]	#,
	mov	QWORD PTR -32[rbp], rax	# node, tmp141
	mov	QWORD PTR -24[rbp], rdx	# node,
	mov	rax, QWORD PTR -96[rbp]	# tmp142,
	mov	QWORD PTR -16[rbp], rax	# node, tmp142
# parser/expr_labels.h:9: STR: node = ParseStr( parser ); goto LED;
	.loc 13 9 33
	jmp	.L352	#
.L364:
	endbr64	
# parser/expr_labels.h:10: REF: node = ParseRef( parser ); goto LED;
	.loc 13 10 13
	lea	rax, -112[rbp]	# tmp143,
	mov	rdx, QWORD PTR -64[rbp]	# tmp144, parser
	mov	rsi, rdx	#, tmp144
	mov	rdi, rax	#, tmp143
	call	ParseRef	#
	mov	rax, QWORD PTR -112[rbp]	# tmp145,
	mov	rdx, QWORD PTR -104[rbp]	#,
	mov	QWORD PTR -32[rbp], rax	# node, tmp145
	mov	QWORD PTR -24[rbp], rdx	# node,
	mov	rax, QWORD PTR -96[rbp]	# tmp146,
	mov	QWORD PTR -16[rbp], rax	# node, tmp146
# parser/expr_labels.h:10: REF: node = ParseRef( parser ); goto LED;
	.loc 13 10 33
	jmp	.L352	#
.L367:
# parser/parser.h:217: 		goto DONE;
	.loc 12 217 3
	nop	
.L354:
# parser/parser.h:219: 	DONE: return node;
	.loc 12 219 15
	mov	rcx, QWORD PTR -56[rbp]	# tmp147, .result_ptr
	mov	rax, QWORD PTR -32[rbp]	# tmp148, node
	mov	rdx, QWORD PTR -24[rbp]	#, node
	mov	QWORD PTR [rcx], rax	# <retval>, tmp148
	mov	QWORD PTR 8[rcx], rdx	# <retval>,
	mov	rax, QWORD PTR -16[rbp]	# tmp149, node
	mov	QWORD PTR 16[rcx], rax	# <retval>, tmp149
# parser/parser.h:220: }
	.loc 12 220 1
	mov	rax, QWORD PTR -8[rbp]	# tmp151, D.6670
	sub	rax, QWORD PTR fs:40	# tmp151, MEM[(<address-space-1> long unsigned int *)40B]
	je	.L366	#,
	call	__stack_chk_fail@PLT	#
.L366:
	mov	rax, QWORD PTR -56[rbp]	#, .result_ptr
	leave	
	.cfi_def_cfa 7, 8
	ret	
	.cfi_endproc
.LFE99:
	.size	ParseExpr, .-ParseExpr
	.globl	ParseStmt
	.type	ParseStmt, @function
ParseStmt:
.LFB100:
	.loc 12 223 1
	.cfi_startproc
	endbr64	
	push	rbp	#
	.cfi_def_cfa_offset 16
	.cfi_offset 6, -16
	mov	rbp, rsp	#,
	.cfi_def_cfa_register 6
	sub	rsp, 32	#,
	mov	QWORD PTR -24[rbp], rdi	# .result_ptr, .result_ptr
	mov	QWORD PTR -32[rbp], rsi	# parser, parser
# parser/parser.h:223: {
	.loc 12 223 1
	mov	rax, QWORD PTR fs:40	# tmp100, MEM[(<address-space-1> long unsigned int *)40B]
	mov	QWORD PTR -8[rbp], rax	# D.6682, tmp100
	xor	eax, eax	# tmp100
# parser/parser.h:225: 	goto *stmts[ parser->token.type ];
	.loc 12 225 28
	mov	rax, QWORD PTR -32[rbp]	# tmp84, parser
	mov	eax, DWORD PTR [rax]	# _1, parser_5(D)->token.type
# parser/parser.h:225: 	goto *stmts[ parser->token.type ];
	.loc 12 225 13
	mov	eax, eax	# tmp85, _1
	lea	rdx, 0[0+rax*8]	# tmp86,
	lea	rax, stmts.43[rip]	# tmp87,
	mov	rax, QWORD PTR [rdx+rax]	# _2, stmts[_1]
# parser/parser.h:225: 	goto *stmts[ parser->token.type ];
	.loc 12 225 2
	nop	
	jmp	rax	# _2
.L370:
	endbr64	
# parser/stmt_labels.h:1: EXPR: return ParseExpr( parser, PREC_NONE );
	.file 14 "parser/stmt_labels.h"
	.loc 14 1 14
	mov	rax, QWORD PTR -24[rbp]	# tmp88, .result_ptr
	mov	rcx, QWORD PTR -32[rbp]	# tmp89, parser
	mov	edx, 0	#,
	mov	rsi, rcx	#, tmp89
	mov	rdi, rax	#, tmp88
	call	ParseExpr	#
	jmp	.L371	#
.L372:
	endbr64	
# parser/stmt_labels.h:2: IF: return ParseIf( parser );
	.loc 14 2 12
	mov	rax, QWORD PTR -24[rbp]	# tmp90, .result_ptr
	mov	rdx, QWORD PTR -32[rbp]	# tmp91, parser
	mov	rsi, rdx	#, tmp91
	mov	rdi, rax	#, tmp90
	call	ParseIf	#
	jmp	.L371	#
.L373:
	endbr64	
# parser/stmt_labels.h:3: FOR: return ParseFor( parser );
	.loc 14 3 13
	mov	rax, QWORD PTR -24[rbp]	# tmp92, .result_ptr
	mov	rdx, QWORD PTR -32[rbp]	# tmp93, parser
	mov	rsi, rdx	#, tmp93
	mov	rdi, rax	#, tmp92
	call	ParseFor	#
	jmp	.L371	#
.L374:
	endbr64	
# parser/stmt_labels.h:4: DO: return ParseDo( parser );
	.loc 14 4 12
	mov	rax, QWORD PTR -24[rbp]	# tmp94, .result_ptr
	mov	rdx, QWORD PTR -32[rbp]	# tmp95, parser
	mov	rsi, rdx	#, tmp95
	mov	rdi, rax	#, tmp94
	call	ParseDo	#
	jmp	.L371	#
.L375:
	endbr64	
# parser/stmt_labels.h:5: WHILE: return ParseWhile( parser );
	.loc 14 5 15
	mov	rax, QWORD PTR -24[rbp]	# tmp96, .result_ptr
	mov	rdx, QWORD PTR -32[rbp]	# tmp97, parser
	mov	rsi, rdx	#, tmp97
	mov	rdi, rax	#, tmp96
	call	ParseWhile	#
	jmp	.L371	#
.L376:
	endbr64	
# parser/stmt_labels.h:6: ID: return ParseId( parser );
	.loc 14 6 12
	mov	rax, QWORD PTR -24[rbp]	# tmp98, .result_ptr
	mov	rdx, QWORD PTR -32[rbp]	# tmp99, parser
	mov	rsi, rdx	#, tmp99
	mov	rdi, rax	#, tmp98
	call	ParseId	#
.L371:
# parser/parser.h:227: }
	.loc 12 227 1
	mov	rax, QWORD PTR -8[rbp]	# tmp101, D.6682
	sub	rax, QWORD PTR fs:40	# tmp101, MEM[(<address-space-1> long unsigned int *)40B]
	je	.L377	#,
	call	__stack_chk_fail@PLT	#
.L377:
	mov	rax, QWORD PTR -24[rbp]	#, .result_ptr
	leave	
	.cfi_def_cfa 7, 8
	ret	
	.cfi_endproc
.LFE100:
	.size	ParseStmt, .-ParseStmt
	.globl	Parse
	.type	Parse, @function
Parse:
.LFB101:
	.loc 12 230 1
	.cfi_startproc
	endbr64	
	push	rbp	#
	.cfi_def_cfa_offset 16
	.cfi_offset 6, -16
	mov	rbp, rsp	#,
	.cfi_def_cfa_register 6
	push	rbx	#
	sub	rsp, 88	#,
	.cfi_offset 3, -24
# parser/parser.h:230: {
	.loc 12 230 1
	mov	rax, QWORD PTR fs:40	# tmp92, MEM[(<address-space-1> long unsigned int *)40B]
	mov	QWORD PTR -24[rbp], rax	# D.6690, tmp92
	xor	eax, eax	# tmp92
# parser/parser.h:231: 	Parser *parser = GetParser( );
	.loc 12 231 19
	call	GetParser	#
	mov	QWORD PTR -56[rbp], rax	# parser, tmp83
# parser/parser.h:232: 	parser->token = Lex( );
	.loc 12 232 18
	mov	rbx, QWORD PTR -56[rbp]	# tmp84, parser
	lea	rax, -96[rbp]	# tmp85,
	mov	rdi, rax	#, tmp85
	call	Lex	#
	mov	rax, QWORD PTR -96[rbp]	# tmp86,
	mov	rdx, QWORD PTR -88[rbp]	#,
	mov	QWORD PTR [rbx], rax	# parser_5->token, tmp86
	mov	QWORD PTR 8[rbx], rdx	# parser_5->token,
	mov	rax, QWORD PTR -80[rbp]	# tmp87,
	mov	QWORD PTR 16[rbx], rax	# parser_5->token, tmp87
# parser/parser.h:233: 	while( parser->token.type != TK_EOS )
	.loc 12 233 7
	jmp	.L379	#
.L380:
.LBB14:
# parser/parser.h:235: 		ParseNode node = ParseStmt( parser );
	.loc 12 235 20
	lea	rax, -48[rbp]	# tmp88,
	mov	rdx, QWORD PTR -56[rbp]	# tmp89, parser
	mov	rsi, rdx	#, tmp89
	mov	rdi, rax	#, tmp88
	call	ParseStmt	#
# parser/parser.h:236: 		ParseNodeLog( &node );
	.loc 12 236 3
	lea	rax, -48[rbp]	# tmp90,
	mov	rdi, rax	#, tmp90
	call	ParseNodeLog	#
.L379:
.LBE14:
# parser/parser.h:233: 	while( parser->token.type != TK_EOS )
	.loc 12 233 22
	mov	rax, QWORD PTR -56[rbp]	# tmp91, parser
	mov	eax, DWORD PTR [rax]	# _1, parser_5->token.type
# parser/parser.h:233: 	while( parser->token.type != TK_EOS )
	.loc 12 233 28
	test	eax, eax	# _1
	jne	.L380	#,
# parser/parser.h:238: }
	.loc 12 238 1
	nop	
	mov	rax, QWORD PTR -24[rbp]	# tmp93, D.6690
	sub	rax, QWORD PTR fs:40	# tmp93, MEM[(<address-space-1> long unsigned int *)40B]
	je	.L381	#,
	call	__stack_chk_fail@PLT	#
.L381:
	mov	rbx, QWORD PTR -8[rbp]	#,
	leave	
	.cfi_def_cfa 7, 8
	ret	
	.cfi_endproc
.LFE101:
	.size	Parse, .-Parse
	.type	GetCompiler, @function
GetCompiler:
.LFB102:
	.file 15 "compiler/compiler.h"
	.loc 15 40 1
	.cfi_startproc
	push	rbp	#
	.cfi_def_cfa_offset 16
	.cfi_offset 6, -16
	mov	rbp, rsp	#,
	.cfi_def_cfa_register 6
# compiler/compiler.h:42: 	return &compiler;
	.loc 15 42 9
	lea	rax, compiler.41[rip]	# _1,
# compiler/compiler.h:43: }
	.loc 15 43 1
	pop	rbp	#
	.cfi_def_cfa 7, 8
	ret	
	.cfi_endproc
.LFE102:
	.size	GetCompiler, .-GetCompiler
	.globl	FnCommit
	.type	FnCommit, @function
FnCommit:
.LFB103:
	.loc 15 46 1
	.cfi_startproc
	endbr64	
	push	rbp	#
	.cfi_def_cfa_offset 16
	.cfi_offset 6, -16
	mov	rbp, rsp	#,
	.cfi_def_cfa_register 6
	sub	rsp, 16	#,
# compiler/compiler.h:47: 	Compiler *compiler = GetCompiler( );
	.loc 15 47 23
	call	GetCompiler	#
	mov	QWORD PTR -16[rbp], rax	# compiler, tmp90
# compiler/compiler.h:48: 	Func *fn = VecCommit( GetFuncs( ) );
	.loc 15 48 13
	call	GetFuncs	#
# compiler/compiler.h:48: 	Func *fn = VecCommit( GetFuncs( ) );
	.loc 15 48 13 is_stmt 0 discriminator 1
	mov	rdi, rax	#, _1
	call	VecCommit	#
	mov	QWORD PTR -8[rbp], rax	# fn, tmp91
# compiler/compiler.h:49: 	fn->iconsts = GetConsts( )->len;
	.loc 15 49 16 is_stmt 1
	call	GetConsts	#
# compiler/compiler.h:49: 	fn->iconsts = GetConsts( )->len;
	.loc 15 49 28 discriminator 1
	mov	edx, DWORD PTR 8[rax]	# _3, _2->D.4073.len
# compiler/compiler.h:49: 	fn->iconsts = GetConsts( )->len;
	.loc 15 49 14 discriminator 1
	mov	rax, QWORD PTR -8[rbp]	# tmp92, fn
	mov	DWORD PTR [rax], edx	# fn_14->iconsts, _3
# compiler/compiler.h:50: 	fn->ilocals = GetLocals( )->len;
	.loc 15 50 16
	call	GetLocals	#
# compiler/compiler.h:50: 	fn->ilocals = GetLocals( )->len;
	.loc 15 50 28 discriminator 1
	mov	edx, DWORD PTR 8[rax]	# _5, _4->D.4073.len
# compiler/compiler.h:50: 	fn->ilocals = GetLocals( )->len;
	.loc 15 50 14 discriminator 1
	mov	rax, QWORD PTR -8[rbp]	# tmp93, fn
	mov	DWORD PTR 4[rax], edx	# fn_14->ilocals, _5
# compiler/compiler.h:51: 	fn->icode = GetCode( )->len;
	.loc 15 51 14
	call	GetCode	#
# compiler/compiler.h:51: 	fn->icode = GetCode( )->len;
	.loc 15 51 24 discriminator 1
	mov	edx, DWORD PTR 8[rax]	# _7, _6->D.4073.len
# compiler/compiler.h:51: 	fn->icode = GetCode( )->len;
	.loc 15 51 12 discriminator 1
	mov	rax, QWORD PTR -8[rbp]	# tmp94, fn
	mov	DWORD PTR 8[rax], edx	# fn_14->icode, _7
# compiler/compiler.h:52: 	fn->nconsts = fn->nlocals = fn->ncode = 0;
	.loc 15 52 40
	mov	rax, QWORD PTR -8[rbp]	# tmp95, fn
	mov	WORD PTR 14[rax], 0	# fn_14->ncode,
# compiler/compiler.h:52: 	fn->nconsts = fn->nlocals = fn->ncode = 0;
	.loc 15 52 28
	mov	rax, QWORD PTR -8[rbp]	# tmp96, fn
	mov	BYTE PTR 13[rax], 0	# fn_14->nlocals,
# compiler/compiler.h:52: 	fn->nconsts = fn->nlocals = fn->ncode = 0;
	.loc 15 52 18
	mov	rax, QWORD PTR -8[rbp]	# tmp97, fn
	movzx	edx, BYTE PTR 13[rax]	# _8, fn_14->nlocals
# compiler/compiler.h:52: 	fn->nconsts = fn->nlocals = fn->ncode = 0;
	.loc 15 52 14
	mov	rax, QWORD PTR -8[rbp]	# tmp98, fn
	mov	BYTE PTR 12[rax], dl	# fn_14->nconsts, _8
# compiler/compiler.h:53: 	compiler->fn = fn;
	.loc 15 53 15
	mov	rax, QWORD PTR -16[rbp]	# tmp99, compiler
	mov	rdx, QWORD PTR -8[rbp]	# tmp100, fn
	mov	QWORD PTR [rax], rdx	# compiler_11->fn, tmp100
# compiler/compiler.h:54: }
	.loc 15 54 1
	nop	
	leave	
	.cfi_def_cfa 7, 8
	ret	
	.cfi_endproc
.LFE103:
	.size	FnCommit, .-FnCommit
	.globl	CompilerInit
	.type	CompilerInit, @function
CompilerInit:
.LFB104:
	.loc 15 57 1
	.cfi_startproc
	endbr64	
	push	rbp	#
	.cfi_def_cfa_offset 16
	.cfi_offset 6, -16
	mov	rbp, rsp	#,
	.cfi_def_cfa_register 6
	sub	rsp, 16	#,
# compiler/compiler.h:58: 	Compiler *compiler = GetCompiler( );
	.loc 15 58 23
	call	GetCompiler	#
	mov	QWORD PTR -8[rbp], rax	# compiler, tmp82
# compiler/compiler.h:62: }
	.loc 15 62 1
	nop	
	leave	
	.cfi_def_cfa 7, 8
	ret	
	.cfi_endproc
.LFE104:
	.size	CompilerInit, .-CompilerInit
	.type	ConstPush, @function
ConstPush:
.LFB105:
	.loc 15 65 1
	.cfi_startproc
	push	rbp	#
	.cfi_def_cfa_offset 16
	.cfi_offset 6, -16
	mov	rbp, rsp	#,
	.cfi_def_cfa_register 6
	sub	rsp, 32	#,
	mov	eax, edi	# tmp90, value
	mov	rcx, rsi	# tmp91, value
	mov	rdx, rcx	#, tmp91
	mov	QWORD PTR -32[rbp], rax	# value, tmp89
	mov	QWORD PTR -24[rbp], rdx	# value,
# compiler/compiler.h:66: 	Compiler *compiler = GetCompiler( );
	.loc 15 66 23
	call	GetCompiler	#
	mov	QWORD PTR -8[rbp], rax	# compiler, tmp92
# compiler/compiler.h:67: 	if( compiler->fn ){ compiler->fn->nconsts++; }
	.loc 15 67 14
	mov	rax, QWORD PTR -8[rbp]	# tmp93, compiler
	mov	rax, QWORD PTR [rax]	# _1, compiler_10->fn
# compiler/compiler.h:67: 	if( compiler->fn ){ compiler->fn->nconsts++; }
	.loc 15 67 4
	test	rax, rax	# _1
	je	.L387	#,
# compiler/compiler.h:67: 	if( compiler->fn ){ compiler->fn->nconsts++; }
	.loc 15 67 30 discriminator 1
	mov	rax, QWORD PTR -8[rbp]	# tmp94, compiler
	mov	rax, QWORD PTR [rax]	# _2, compiler_10->fn
# compiler/compiler.h:67: 	if( compiler->fn ){ compiler->fn->nconsts++; }
	.loc 15 67 34 discriminator 1
	movzx	edx, BYTE PTR 12[rax]	# _3, _2->nconsts
# compiler/compiler.h:67: 	if( compiler->fn ){ compiler->fn->nconsts++; }
	.loc 15 67 43 discriminator 1
	add	edx, 1	# _5,
	mov	BYTE PTR 12[rax], dl	# _2->nconsts, _5
.L387:
# compiler/compiler.h:68: 	return VecPush( GetConsts( ), &value );
	.loc 15 68 9
	call	GetConsts	#
	mov	rdx, rax	# _6,
# compiler/compiler.h:68: 	return VecPush( GetConsts( ), &value );
	.loc 15 68 9 is_stmt 0 discriminator 1
	lea	rax, -32[rbp]	# tmp95,
	mov	rsi, rax	#, tmp95
	mov	rdi, rdx	#, _6
	call	VecPush	#
# compiler/compiler.h:69: }
	.loc 15 69 1 is_stmt 1
	leave	
	.cfi_def_cfa 7, 8
	ret	
	.cfi_endproc
.LFE105:
	.size	ConstPush, .-ConstPush
	.type	LocalPush, @function
LocalPush:
.LFB107:
	.loc 15 77 1
	.cfi_startproc
	push	rbp	#
	.cfi_def_cfa_offset 16
	.cfi_offset 6, -16
	mov	rbp, rsp	#,
	.cfi_def_cfa_register 6
	sub	rsp, 64	#,
	mov	QWORD PTR -24[rbp], rdi	# out_idx, out_idx
	mov	QWORD PTR -32[rbp], rsi	# fn, fn
	mov	QWORD PTR -40[rbp], rdx	# name, name
	mov	eax, ecx	# tmp89, value
	mov	rcx, r8	# tmp90, value
	mov	rdx, rcx	#, tmp90
	mov	QWORD PTR -64[rbp], rax	# value, tmp88
	mov	QWORD PTR -56[rbp], rdx	# value,
# compiler/compiler.h:78: 	fn->nlocals++;
	.loc 15 78 4
	mov	rax, QWORD PTR -32[rbp]	# tmp91, fn
	movzx	eax, BYTE PTR 13[rax]	# _1, fn_7(D)->nlocals
# compiler/compiler.h:78: 	fn->nlocals++;
	.loc 15 78 13
	lea	edx, 1[rax]	# _3,
	mov	rax, QWORD PTR -32[rbp]	# tmp92, fn
	mov	BYTE PTR 13[rax], dl	# fn_7(D)->nlocals, _3
# compiler/compiler.h:79: 	Vec *locals = GetLocals( );
	.loc 15 79 16
	call	GetLocals	#
	mov	QWORD PTR -16[rbp], rax	# locals, tmp93
# compiler/compiler.h:80: 	Var *var = VecCommit( locals );
	.loc 15 80 13
	mov	rax, QWORD PTR -16[rbp]	# tmp94, locals
	mov	rdi, rax	#, tmp94
	call	VecCommit	#
	mov	QWORD PTR -8[rbp], rax	# var, tmp95
# compiler/compiler.h:81: 	var->name = name;
	.loc 15 81 12
	mov	rax, QWORD PTR -8[rbp]	# tmp96, var
	mov	rdx, QWORD PTR -40[rbp]	# tmp97, name
	mov	QWORD PTR [rax], rdx	# var_12->D.4226.name, tmp97
# compiler/compiler.h:82: 	var->value = value;
	.loc 15 82 13
	mov	rcx, QWORD PTR -8[rbp]	# tmp98, var
	mov	rax, QWORD PTR -64[rbp]	# tmp99, value
	mov	rdx, QWORD PTR -56[rbp]	#, value
	mov	QWORD PTR 8[rcx], rax	# var_12->value, tmp99
	mov	QWORD PTR 16[rcx], rdx	# var_12->value,
# compiler/compiler.h:83: 	*out_idx = locals->len - 1;
	.loc 15 83 19
	mov	rax, QWORD PTR -16[rbp]	# tmp100, locals
	mov	eax, DWORD PTR 8[rax]	# _4, locals_10->D.4073.len
# compiler/compiler.h:83: 	*out_idx = locals->len - 1;
	.loc 15 83 25
	lea	edx, -1[rax]	# _5,
# compiler/compiler.h:83: 	*out_idx = locals->len - 1;
	.loc 15 83 11
	mov	rax, QWORD PTR -24[rbp]	# tmp101, out_idx
	mov	DWORD PTR [rax], edx	# *out_idx_16(D), _5
# compiler/compiler.h:84: 	return var;
	.loc 15 84 9
	mov	rax, QWORD PTR -8[rbp]	# _18, var
# compiler/compiler.h:85: }
	.loc 15 85 1
	leave	
	.cfi_def_cfa 7, 8
	ret	
	.cfi_endproc
.LFE107:
	.size	LocalPush, .-LocalPush
	.type	LocalGet, @function
LocalGet:
.LFB108:
	.loc 15 88 1
	.cfi_startproc
	push	rbp	#
	.cfi_def_cfa_offset 16
	.cfi_offset 6, -16
	mov	rbp, rsp	#,
	.cfi_def_cfa_register 6
	sub	rsp, 56	#,
	mov	QWORD PTR -40[rbp], rdi	# out_idx, out_idx
	mov	QWORD PTR -48[rbp], rsi	# fn, fn
	mov	QWORD PTR -56[rbp], rdx	# name, name
# compiler/compiler.h:89: 	Vec *locals = GetLocals( );
	.loc 15 89 16
	call	GetLocals	#
	mov	QWORD PTR -16[rbp], rax	# locals, tmp88
# compiler/compiler.h:90: 	U32 start = fn->ilocals;
	.loc 15 90 6
	mov	rax, QWORD PTR -48[rbp]	# tmp89, fn
	mov	eax, DWORD PTR 4[rax]	# tmp90, fn_12(D)->ilocals
	mov	DWORD PTR -20[rbp], eax	# start, tmp90
# compiler/compiler.h:91: 	U32 end = ( start + fn->nlocals ) - 1;
	.loc 15 91 24
	mov	rax, QWORD PTR -48[rbp]	# tmp91, fn
	movzx	eax, BYTE PTR 13[rax]	# _1, fn_12(D)->nlocals
	movzx	edx, al	# _2, _1
# compiler/compiler.h:91: 	U32 end = ( start + fn->nlocals ) - 1;
	.loc 15 91 20
	mov	eax, DWORD PTR -20[rbp]	# tmp92, start
	add	eax, edx	# _3, _2
# compiler/compiler.h:91: 	U32 end = ( start + fn->nlocals ) - 1;
	.loc 15 91 6
	sub	eax, 1	# tmp93,
	mov	DWORD PTR -24[rbp], eax	# end, tmp93
# compiler/compiler.h:92: 	for( ; end >= start; end-- )
	.loc 15 92 2
	jmp	.L392	#
.L395:
.LBB15:
# compiler/compiler.h:94: 		Var *var = VecGet( locals, end );
	.loc 15 94 14
	mov	edx, DWORD PTR -24[rbp]	# tmp94, end
	mov	rax, QWORD PTR -16[rbp]	# tmp95, locals
	mov	esi, edx	#, tmp94
	mov	rdi, rax	#, tmp95
	call	VecGet	#
	mov	QWORD PTR -8[rbp], rax	# var, tmp96
# compiler/compiler.h:95: 		if( var->name == name ){ *out_idx = end; return var; }
	.loc 15 95 10
	mov	rax, QWORD PTR -8[rbp]	# tmp97, var
	mov	rax, QWORD PTR [rax]	# _4, var_17->D.4226.name
# compiler/compiler.h:95: 		if( var->name == name ){ *out_idx = end; return var; }
	.loc 15 95 5
	cmp	QWORD PTR -56[rbp], rax	# name, _4
	jne	.L393	#,
# compiler/compiler.h:95: 		if( var->name == name ){ *out_idx = end; return var; }
	.loc 15 95 37 discriminator 1
	mov	rax, QWORD PTR -40[rbp]	# tmp98, out_idx
	mov	edx, DWORD PTR -24[rbp]	# tmp99, end
	mov	DWORD PTR [rax], edx	# *out_idx_20(D), tmp99
# compiler/compiler.h:95: 		if( var->name == name ){ *out_idx = end; return var; }
	.loc 15 95 51 discriminator 1
	mov	rax, QWORD PTR -8[rbp]	# _6, var
# compiler/compiler.h:95: 		if( var->name == name ){ *out_idx = end; return var; }
	.loc 15 95 51 is_stmt 0
	jmp	.L394	#
.L393:
.LBE15:
# compiler/compiler.h:92: 	for( ; end >= start; end-- )
	.loc 15 92 26 is_stmt 1
	sub	DWORD PTR -24[rbp], 1	# end,
.L392:
# compiler/compiler.h:92: 	for( ; end >= start; end-- )
	.loc 15 92 13 discriminator 1
	mov	eax, DWORD PTR -24[rbp]	# tmp100, end
	cmp	eax, DWORD PTR -20[rbp]	# tmp100, start
	jnb	.L395	#,
# compiler/compiler.h:97: 	return NULL;
	.loc 15 97 9
	mov	eax, 0	# _6,
.L394:
# compiler/compiler.h:98: }
	.loc 15 98 1
	leave	
	.cfi_def_cfa 7, 8
	ret	
	.cfi_endproc
.LFE108:
	.size	LocalGet, .-LocalGet
	.type	GlobalPush, @function
GlobalPush:
.LFB109:
	.loc 15 101 1
	.cfi_startproc
	push	rbp	#
	.cfi_def_cfa_offset 16
	.cfi_offset 6, -16
	mov	rbp, rsp	#,
	.cfi_def_cfa_register 6
	sub	rsp, 64	#,
	mov	QWORD PTR -40[rbp], rdi	# out_idx, out_idx
	mov	QWORD PTR -48[rbp], rsi	# name, name
	mov	eax, edx	# tmp86, value
	mov	rdx, rcx	#, tmp87
	mov	QWORD PTR -64[rbp], rax	# value, tmp85
	mov	QWORD PTR -56[rbp], rdx	# value,
# compiler/compiler.h:102: 	Vec *globals = GetGlobals( );
	.loc 15 102 17
	call	GetGlobals	#
	mov	QWORD PTR -16[rbp], rax	# globals, tmp88
# compiler/compiler.h:103: 	U32 idx = globals->len;
	.loc 15 103 6
	mov	rax, QWORD PTR -16[rbp]	# tmp89, globals
	mov	eax, DWORD PTR 8[rax]	# tmp90, globals_4->D.4073.len
	mov	DWORD PTR -20[rbp], eax	# idx, tmp90
# compiler/compiler.h:104: 	Var *var = VecCommit( globals );
	.loc 15 104 13
	mov	rax, QWORD PTR -16[rbp]	# tmp91, globals
	mov	rdi, rax	#, tmp91
	call	VecCommit	#
	mov	QWORD PTR -8[rbp], rax	# var, tmp92
# compiler/compiler.h:105: 	var->name = name;
	.loc 15 105 12
	mov	rax, QWORD PTR -8[rbp]	# tmp93, var
	mov	rdx, QWORD PTR -48[rbp]	# tmp94, name
	mov	QWORD PTR [rax], rdx	# var_7->D.4226.name, tmp94
# compiler/compiler.h:106: 	var->value = value;
	.loc 15 106 13
	mov	rcx, QWORD PTR -8[rbp]	# tmp95, var
	mov	rax, QWORD PTR -64[rbp]	# tmp96, value
	mov	rdx, QWORD PTR -56[rbp]	#, value
	mov	QWORD PTR 8[rcx], rax	# var_7->value, tmp96
	mov	QWORD PTR 16[rcx], rdx	# var_7->value,
# compiler/compiler.h:107: 	EnvPut( GetEnv( ), name, idx );
	.loc 15 107 2
	call	GetEnv	#
	mov	rcx, rax	# _1,
# compiler/compiler.h:107: 	EnvPut( GetEnv( ), name, idx );
	.loc 15 107 2 is_stmt 0 discriminator 1
	mov	edx, DWORD PTR -20[rbp]	# tmp97, idx
	mov	rax, QWORD PTR -48[rbp]	# tmp98, name
	mov	rsi, rax	#, tmp98
	mov	rdi, rcx	#, _1
	call	EnvPut	#
# compiler/compiler.h:108: 	*out_idx = idx;
	.loc 15 108 11 is_stmt 1
	mov	rax, QWORD PTR -40[rbp]	# tmp99, out_idx
	mov	edx, DWORD PTR -20[rbp]	# tmp100, idx
	mov	DWORD PTR [rax], edx	# *out_idx_13(D), tmp100
# compiler/compiler.h:109: 	return var;
	.loc 15 109 9
	mov	rax, QWORD PTR -8[rbp]	# _15, var
# compiler/compiler.h:110: }
	.loc 15 110 1
	leave	
	.cfi_def_cfa 7, 8
	ret	
	.cfi_endproc
.LFE109:
	.size	GlobalPush, .-GlobalPush
	.type	GlobalGet, @function
GlobalGet:
.LFB110:
	.loc 15 113 1
	.cfi_startproc
	push	rbp	#
	.cfi_def_cfa_offset 16
	.cfi_offset 6, -16
	mov	rbp, rsp	#,
	.cfi_def_cfa_register 6
	sub	rsp, 32	#,
	mov	QWORD PTR -24[rbp], rdi	# out_idx, out_idx
	mov	QWORD PTR -32[rbp], rsi	# name, name
# compiler/compiler.h:114: 	Vec *globals = GetGlobals( );
	.loc 15 114 17
	call	GetGlobals	#
	mov	QWORD PTR -16[rbp], rax	# globals, tmp87
# compiler/compiler.h:115: 	Evar *evar = EnvGet( GetEnv( ), name );
	.loc 15 115 15
	call	GetEnv	#
	mov	rdx, rax	# _1,
# compiler/compiler.h:115: 	Evar *evar = EnvGet( GetEnv( ), name );
	.loc 15 115 15 is_stmt 0 discriminator 1
	mov	rax, QWORD PTR -32[rbp]	# tmp88, name
	mov	rsi, rax	#, tmp88
	mov	rdi, rdx	#, _1
	call	EnvGet	#
	mov	QWORD PTR -8[rbp], rax	# evar, tmp89
# compiler/compiler.h:116: 	if( !evar ){ return NULL; }
	.loc 15 116 4 is_stmt 1
	cmp	QWORD PTR -8[rbp], 0	# evar,
	jne	.L399	#,
# compiler/compiler.h:116: 	if( !evar ){ return NULL; }
	.loc 15 116 22 discriminator 1
	mov	eax, 0	# _4,
# compiler/compiler.h:116: 	if( !evar ){ return NULL; }
	.loc 15 116 22 is_stmt 0
	jmp	.L400	#
.L399:
# compiler/compiler.h:117: 	*out_idx = evar->idx; /* its globals index */
	.loc 15 117 17 is_stmt 1
	mov	rax, QWORD PTR -8[rbp]	# tmp90, evar
	mov	edx, DWORD PTR 4[rax]	# _2, evar_12->idx
# compiler/compiler.h:117: 	*out_idx = evar->idx; /* its globals index */
	.loc 15 117 11
	mov	rax, QWORD PTR -24[rbp]	# tmp91, out_idx
	mov	DWORD PTR [rax], edx	# *out_idx_13(D), _2
# compiler/compiler.h:118: 	return VecGet( globals, evar->idx );
	.loc 15 118 9
	mov	rax, QWORD PTR -8[rbp]	# tmp92, evar
	mov	edx, DWORD PTR 4[rax]	# _3, evar_12->idx
	mov	rax, QWORD PTR -16[rbp]	# tmp93, globals
	mov	esi, edx	#, _3
	mov	rdi, rax	#, tmp93
	call	VecGet	#
.L400:
# compiler/compiler.h:119: }
	.loc 15 119 1
	leave	
	.cfi_def_cfa 7, 8
	ret	
	.cfi_endproc
.LFE110:
	.size	GlobalGet, .-GlobalGet
	.type	OpPush, @function
OpPush:
.LFB111:
	.loc 15 122 1
	.cfi_startproc
	push	rbp	#
	.cfi_def_cfa_offset 16
	.cfi_offset 6, -16
	mov	rbp, rsp	#,
	.cfi_def_cfa_register 6
	sub	rsp, 64	#,
	mov	DWORD PTR -36[rbp], edi	# OP, OP
	mov	eax, ecx	# tmp97, M
	mov	edi, r9d	# tmp101, ST
	mov	ecx, esi	# tmp94, tmp93
	mov	BYTE PTR -40[rbp], cl	# D, tmp94
	mov	BYTE PTR -44[rbp], dl	# S, tmp96
	mov	BYTE PTR -48[rbp], al	# M, tmp98
	mov	eax, r8d	# tmp100, tmp99
	mov	BYTE PTR -52[rbp], al	# DT, tmp100
	mov	eax, edi	# tmp102, tmp101
	mov	BYTE PTR -56[rbp], al	# ST, tmp102
# compiler/compiler.h:123: 	Compiler *compiler = GetCompiler( );
	.loc 15 123 23
	call	GetCompiler	#
	mov	QWORD PTR -24[rbp], rax	# compiler, tmp103
# compiler/compiler.h:124: 	Vec *code = GetCode( );
	.loc 15 124 14
	call	GetCode	#
	mov	QWORD PTR -16[rbp], rax	# code, tmp104
# compiler/compiler.h:125: 	if( compiler->fn ){ compiler->fn->ncode++; }
	.loc 15 125 14
	mov	rax, QWORD PTR -24[rbp]	# tmp105, compiler
	mov	rax, QWORD PTR [rax]	# _1, compiler_14->fn
# compiler/compiler.h:125: 	if( compiler->fn ){ compiler->fn->ncode++; }
	.loc 15 125 4
	test	rax, rax	# _1
	je	.L402	#,
# compiler/compiler.h:125: 	if( compiler->fn ){ compiler->fn->ncode++; }
	.loc 15 125 30 discriminator 1
	mov	rax, QWORD PTR -24[rbp]	# tmp106, compiler
	mov	rax, QWORD PTR [rax]	# _2, compiler_14->fn
# compiler/compiler.h:125: 	if( compiler->fn ){ compiler->fn->ncode++; }
	.loc 15 125 34 discriminator 1
	movzx	edx, WORD PTR 14[rax]	# _3, _2->ncode
# compiler/compiler.h:125: 	if( compiler->fn ){ compiler->fn->ncode++; }
	.loc 15 125 41 discriminator 1
	add	edx, 1	# _5,
	mov	WORD PTR 14[rax], dx	# _2->ncode, _5
.L402:
# compiler/compiler.h:126: 	Op *op = VecCommit( code );
	.loc 15 126 11
	mov	rax, QWORD PTR -16[rbp]	# tmp107, code
	mov	rdi, rax	#, tmp107
	call	VecCommit	#
	mov	QWORD PTR -8[rbp], rax	# op, tmp108
# compiler/compiler.h:127: 	op->OP = OP;
	.loc 15 127 9
	mov	eax, DWORD PTR -36[rbp]	# tmp109, OP
	mov	edx, eax	# _6, tmp109
	mov	rax, QWORD PTR -8[rbp]	# tmp110, op
	mov	BYTE PTR [rax], dl	# op_19->OP, _6
# compiler/compiler.h:128: 	op->D = D; /* dest */
	.loc 15 128 8
	mov	rax, QWORD PTR -8[rbp]	# tmp111, op
	movzx	edx, BYTE PTR -40[rbp]	# tmp112, D
	mov	BYTE PTR 1[rax], dl	# op_19->D, tmp112
# compiler/compiler.h:129: 	op->S = S; /* src */
	.loc 15 129 8
	mov	rax, QWORD PTR -8[rbp]	# tmp113, op
	movzx	edx, BYTE PTR -44[rbp]	# tmp114, S
	mov	BYTE PTR 2[rax], dl	# op_19->S, tmp114
# compiler/compiler.h:130: 	op->M = M; /* mode */
	.loc 15 130 8
	movzx	eax, BYTE PTR -48[rbp]	# tmp115, M
	and	eax, 3	# tmp115,
	mov	edx, eax	# _7, tmp115
	mov	rax, QWORD PTR -8[rbp]	# tmp116, op
	mov	ecx, edx	# _7, _7
	and	ecx, 3	# _7,
	movzx	edx, BYTE PTR 3[rax]	# tmp119, op_19->M
	and	edx, -4	# tmp120,
	or	edx, ecx	# tmp121, tmp118
	mov	BYTE PTR 3[rax], dl	# op_19->M, tmp121
# compiler/compiler.h:131: 	op->DT = DT; /* dest type  */
	.loc 15 131 9
	movzx	eax, BYTE PTR -52[rbp]	# tmp122, DT
	and	eax, 7	# tmp122,
	mov	edx, eax	# _8, tmp122
	mov	rax, QWORD PTR -8[rbp]	# tmp123, op
	and	edx, 7	# tmp125,
	lea	ecx, 0[0+rdx*4]	# tmp126,
	movzx	edx, BYTE PTR 3[rax]	# tmp127, op_19->DT
	and	edx, -29	# tmp128,
	or	edx, ecx	# tmp129, tmp126
	mov	BYTE PTR 3[rax], dl	# op_19->DT, tmp129
# compiler/compiler.h:132: 	op->ST = ST; /* src type */
	.loc 15 132 9
	movzx	eax, BYTE PTR -56[rbp]	# tmp130, ST
	and	eax, 7	# tmp130,
	mov	edx, eax	# _9, tmp130
	mov	rax, QWORD PTR -8[rbp]	# tmp131, op
	mov	ecx, edx	# _9, _9
	sal	ecx, 5	# _9,
	movzx	edx, BYTE PTR 3[rax]	# tmp134, op_19->ST
	and	edx, 31	# tmp135,
	or	edx, ecx	# tmp136, tmp133
	mov	BYTE PTR 3[rax], dl	# op_19->ST, tmp136
# compiler/compiler.h:133: 	return code->len - 1;
	.loc 15 133 13
	mov	rax, QWORD PTR -16[rbp]	# tmp137, code
	mov	eax, DWORD PTR 8[rax]	# _10, code_16->D.4073.len
# compiler/compiler.h:133: 	return code->len - 1;
	.loc 15 133 19
	sub	eax, 1	# _32,
# compiler/compiler.h:134: }
	.loc 15 134 1
	leave	
	.cfi_def_cfa 7, 8
	ret	
	.cfi_endproc
.LFE111:
	.size	OpPush, .-OpPush
	.type	TkToOp, @function
TkToOp:
.LFB113:
	.loc 15 142 1
	.cfi_startproc
	push	rbp	#
	.cfi_def_cfa_offset 16
	.cfi_offset 6, -16
	mov	rbp, rsp	#,
	.cfi_def_cfa_register 6
	mov	DWORD PTR -4[rbp], edi	# type, type
# compiler/compiler.h:144: 	return token_ops[ type ];
	.loc 15 144 18
	mov	eax, DWORD PTR -4[rbp]	# tmp84, type
	lea	rdx, 0[0+rax*4]	# tmp85,
	lea	rax, token_ops.27[rip]	# tmp86,
	mov	eax, DWORD PTR [rdx+rax]	# _3, token_ops[type_2(D)]
# compiler/compiler.h:145: }
	.loc 15 145 1
	pop	rbp	#
	.cfi_def_cfa 7, 8
	ret	
	.cfi_endproc
.LFE113:
	.size	TkToOp, .-TkToOp
	.type	LocalAssign, @function
LocalAssign:
.LFB114:
	.file 16 "compiler/assign/assign.h"
	.loc 16 2 1
	.cfi_startproc
	push	rbp	#
	.cfi_def_cfa_offset 16
	.cfi_offset 6, -16
	mov	rbp, rsp	#,
	.cfi_def_cfa_register 6
	sub	rsp, 64	#,
	mov	QWORD PTR -40[rbp], rdi	# fn, fn
	mov	QWORD PTR -48[rbp], rsi	# name, name
	mov	QWORD PTR -56[rbp], rdx	# rhs, rhs
# compiler/assign/assign.h:2: {
	.loc 16 2 1
	mov	rax, QWORD PTR fs:40	# tmp96, MEM[(<address-space-1> long unsigned int *)40B]
	mov	QWORD PTR -8[rbp], rax	# D.6693, tmp96
	xor	eax, eax	# tmp96
# compiler/assign/assign.h:3: 	U32 idx = 0;
	.loc 16 3 6
	mov	DWORD PTR -20[rbp], 0	# idx,
# compiler/assign/assign.h:4: 	Var *var = LocalGet( &idx, fn, name );
	.loc 16 4 13
	mov	rdx, QWORD PTR -48[rbp]	# tmp84, name
	mov	rcx, QWORD PTR -40[rbp]	# tmp85, fn
	lea	rax, -20[rbp]	# tmp86,
	mov	rsi, rcx	#, tmp85
	mov	rdi, rax	#, tmp86
	call	LocalGet	#
	mov	QWORD PTR -16[rbp], rax	# var, tmp87
# compiler/assign/assign.h:5: 	if( !var ){ var = LocalPush( &idx, fn, name, rhs->value ); }
	.loc 16 5 4
	cmp	QWORD PTR -16[rbp], 0	# var,
	jne	.L407	#,
# compiler/assign/assign.h:5: 	if( !var ){ var = LocalPush( &idx, fn, name, rhs->value ); }
	.loc 16 5 20 discriminator 1
	mov	rax, QWORD PTR -56[rbp]	# tmp88, rhs
	mov	ecx, DWORD PTR 8[rax]	# tmp89, rhs_8(D)->value
	mov	rdi, QWORD PTR 16[rax]	# tmp90, rhs_8(D)->value
	mov	rdx, QWORD PTR -48[rbp]	# tmp91, name
	mov	rsi, QWORD PTR -40[rbp]	# tmp92, fn
	lea	rax, -20[rbp]	# tmp93,
	mov	r8, rdi	#, tmp90
	mov	rdi, rax	#, tmp93
	call	LocalPush	#
	mov	QWORD PTR -16[rbp], rax	# var, tmp94
.L407:
# compiler/assign/assign.h:6: 	return idx;
	.loc 16 6 9
	mov	eax, DWORD PTR -20[rbp]	# _11, idx
# compiler/assign/assign.h:7: }
	.loc 16 7 1
	mov	rdx, QWORD PTR -8[rbp]	# tmp97, D.6693
	sub	rdx, QWORD PTR fs:40	# tmp97, MEM[(<address-space-1> long unsigned int *)40B]
	je	.L409	#,
	call	__stack_chk_fail@PLT	#
.L409:
	leave	
	.cfi_def_cfa 7, 8
	ret	
	.cfi_endproc
.LFE114:
	.size	LocalAssign, .-LocalAssign
	.type	GlobalAssignConst, @function
GlobalAssignConst:
.LFB115:
	.loc 16 10 1
	.cfi_startproc
	push	rbp	#
	.cfi_def_cfa_offset 16
	.cfi_offset 6, -16
	mov	rbp, rsp	#,
	.cfi_def_cfa_register 6
	sub	rsp, 32	#,
	mov	DWORD PTR -20[rbp], edi	# dest, dest
	mov	QWORD PTR -32[rbp], rsi	# var, var
# compiler/assign/assign.h:11: 	U32 const_idx = ConstPush( var->value );
	.loc 16 11 18
	mov	rax, QWORD PTR -32[rbp]	# tmp88, var
	mov	edx, DWORD PTR 8[rax]	# tmp89, var_6(D)->value
	mov	rax, QWORD PTR 16[rax]	# tmp90, var_6(D)->value
	mov	edi, edx	#, tmp89
	mov	rsi, rax	#, tmp90
	call	ConstPush	#
	mov	DWORD PTR -8[rbp], eax	# const_idx, tmp91
# compiler/assign/assign.h:12: 	U32 op_idx = OpPush( OP_MOV, dest, const_idx, MODE_CONST, 0, 0 ); 
	.loc 16 12 15
	mov	eax, DWORD PTR -8[rbp]	# tmp92, const_idx
	movzx	edx, al	# _2, _1
	mov	eax, DWORD PTR -20[rbp]	# tmp93, dest
	movzx	eax, al	# _4, _3
	mov	r9d, 0	#,
	mov	r8d, 0	#,
	mov	ecx, 1	#,
	mov	esi, eax	#, _4
	mov	edi, 26	#,
	call	OpPush	#
	mov	DWORD PTR -4[rbp], eax	# op_idx, tmp94
# compiler/assign/assign.h:13: 	return op_idx;
	.loc 16 13 9
	mov	eax, DWORD PTR -4[rbp]	# _12, op_idx
# compiler/assign/assign.h:14: }
	.loc 16 14 1
	leave	
	.cfi_def_cfa 7, 8
	ret	
	.cfi_endproc
.LFE115:
	.size	GlobalAssignConst, .-GlobalAssignConst
	.section	.rodata
	.align 8
.LC9:
	.string	"Assignment to undefined reference: %s\n"
	.text
	.type	GlobalAssignRef, @function
GlobalAssignRef:
.LFB116:
	.loc 16 17 1
	.cfi_startproc
	push	rbp	#
	.cfi_def_cfa_offset 16
	.cfi_offset 6, -16
	mov	rbp, rsp	#,
	.cfi_def_cfa_register 6
	push	rbx	#
	sub	rsp, 72	#,
	.cfi_offset 3, -24
	mov	DWORD PTR -68[rbp], edi	# dest, dest
	mov	QWORD PTR -80[rbp], rsi	# var, var
# compiler/assign/assign.h:17: {
	.loc 16 17 1
	mov	rax, QWORD PTR fs:40	# tmp115, MEM[(<address-space-1> long unsigned int *)40B]
	mov	QWORD PTR -24[rbp], rax	# D.6694, tmp115
	xor	eax, eax	# tmp115
# compiler/assign/assign.h:18: 	Compiler *compiler = GetCompiler( );
	.loc 16 18 23
	call	GetCompiler	#
	mov	QWORD PTR -48[rbp], rax	# compiler, tmp100
# compiler/assign/assign.h:19: 	U32 src = 0;
	.loc 16 19 6
	mov	DWORD PTR -52[rbp], 0	# src,
# compiler/assign/assign.h:20: 	Var *ref = LocalGet( &src, compiler->fn, var->value.str );
	.loc 16 20 13
	mov	rax, QWORD PTR -80[rbp]	# tmp101, var
	mov	rdx, QWORD PTR 16[rax]	# _1, var_23(D)->value.D.4160.str
	mov	rax, QWORD PTR -48[rbp]	# tmp102, compiler
	mov	rcx, QWORD PTR [rax]	# _2, compiler_21->fn
	lea	rax, -52[rbp]	# tmp103,
	mov	rsi, rcx	#, _2
	mov	rdi, rax	#, tmp103
	call	LocalGet	#
	mov	QWORD PTR -40[rbp], rax	# ref, tmp104
# compiler/assign/assign.h:21: 	if( ref ){ return OpPush( OP_MOV, dest, src, MODE_LOCAL, 0, 0 ); }
	.loc 16 21 4
	cmp	QWORD PTR -40[rbp], 0	# ref,
	je	.L413	#,
# compiler/assign/assign.h:21: 	if( ref ){ return OpPush( OP_MOV, dest, src, MODE_LOCAL, 0, 0 ); }
	.loc 16 21 20 discriminator 1
	mov	eax, DWORD PTR -52[rbp]	# src.20_3, src
	movzx	edx, al	# _5, _4
	mov	eax, DWORD PTR -68[rbp]	# tmp105, dest
	movzx	eax, al	# _7, _6
	mov	r9d, 0	#,
	mov	r8d, 0	#,
	mov	ecx, 0	#,
	mov	esi, eax	#, _7
	mov	edi, 26	#,
	call	OpPush	#
# compiler/assign/assign.h:21: 	if( ref ){ return OpPush( OP_MOV, dest, src, MODE_LOCAL, 0, 0 ); }
	.loc 16 21 20 is_stmt 0
	jmp	.L416	#
.L413:
# compiler/assign/assign.h:22: 	ref = GlobalGet( &src, var->value.str );
	.loc 16 22 8 is_stmt 1
	mov	rax, QWORD PTR -80[rbp]	# tmp106, var
	mov	rdx, QWORD PTR 16[rax]	# _8, var_23(D)->value.D.4160.str
	lea	rax, -52[rbp]	# tmp107,
	mov	rsi, rdx	#, _8
	mov	rdi, rax	#, tmp107
	call	GlobalGet	#
	mov	QWORD PTR -40[rbp], rax	# ref, tmp108
# compiler/assign/assign.h:23: 	if( ref ){ return OpPush( OP_MOV, dest, src, MODE_GLOBAL, 0, 0 ); }
	.loc 16 23 4
	cmp	QWORD PTR -40[rbp], 0	# ref,
	je	.L415	#,
# compiler/assign/assign.h:23: 	if( ref ){ return OpPush( OP_MOV, dest, src, MODE_GLOBAL, 0, 0 ); }
	.loc 16 23 20 discriminator 1
	mov	eax, DWORD PTR -52[rbp]	# src.21_9, src
	movzx	edx, al	# _11, _10
	mov	eax, DWORD PTR -68[rbp]	# tmp109, dest
	movzx	eax, al	# _13, _12
	mov	r9d, 0	#,
	mov	r8d, 0	#,
	mov	ecx, 2	#,
	mov	esi, eax	#, _13
	mov	edi, 26	#,
	call	OpPush	#
# compiler/assign/assign.h:23: 	if( ref ){ return OpPush( OP_MOV, dest, src, MODE_GLOBAL, 0, 0 ); }
	.loc 16 23 20 is_stmt 0
	jmp	.L416	#
.L415:
# compiler/assign/assign.h:24: 	I8 *val = ArenaOff( GetStrings( ), var->value.str->offset );
	.loc 16 24 47 is_stmt 1
	mov	rax, QWORD PTR -80[rbp]	# tmp110, var
	mov	rax, QWORD PTR 16[rax]	# _14, var_23(D)->value.D.4160.str
# compiler/assign/assign.h:24: 	I8 *val = ArenaOff( GetStrings( ), var->value.str->offset );
	.loc 16 24 12
	mov	ebx, DWORD PTR [rax]	# _15, _14->offset
	call	GetStrings	#
# compiler/assign/assign.h:24: 	I8 *val = ArenaOff( GetStrings( ), var->value.str->offset );
	.loc 16 24 12 is_stmt 0 discriminator 1
	mov	esi, ebx	#, _15
	mov	rdi, rax	#, _16
	call	ArenaOff	#
	mov	QWORD PTR -32[rbp], rax	# val, tmp111
# compiler/assign/assign.h:25: 	Throw( "Assignment to undefined reference: %s\n", val );
	.loc 16 25 2 is_stmt 1
	mov	rax, QWORD PTR -32[rbp]	# tmp112, val
	mov	rsi, rax	#, tmp112
	lea	rax, .LC9[rip]	# tmp113,
	mov	rdi, rax	#, tmp113
	mov	eax, 0	#,
	call	Throw	#
# compiler/assign/assign.h:26: 	return 0;
	.loc 16 26 9
	mov	eax, 0	# _17,
.L416:
# compiler/assign/assign.h:27: }
	.loc 16 27 1
	mov	rdx, QWORD PTR -24[rbp]	# tmp116, D.6694
	sub	rdx, QWORD PTR fs:40	# tmp116, MEM[(<address-space-1> long unsigned int *)40B]
	je	.L417	#,
	call	__stack_chk_fail@PLT	#
.L417:
	mov	rbx, QWORD PTR -8[rbp]	#,
	leave	
	.cfi_def_cfa 7, 8
	ret	
	.cfi_endproc
.LFE116:
	.size	GlobalAssignRef, .-GlobalAssignRef
	.type	GlobalAssignCall, @function
GlobalAssignCall:
.LFB117:
	.loc 16 30 1
	.cfi_startproc
	push	rbp	#
	.cfi_def_cfa_offset 16
	.cfi_offset 6, -16
	mov	rbp, rsp	#,
	.cfi_def_cfa_register 6
	mov	DWORD PTR -4[rbp], edi	# dest, dest
	mov	QWORD PTR -16[rbp], rsi	# var, var
# compiler/assign/assign.h:31: 	return 0;
	.loc 16 31 9
	mov	eax, 0	# _1,
# compiler/assign/assign.h:32: }
	.loc 16 32 1
	pop	rbp	#
	.cfi_def_cfa 7, 8
	ret	
	.cfi_endproc
.LFE117:
	.size	GlobalAssignCall, .-GlobalAssignCall
	.type	GlobalAssign, @function
GlobalAssign:
.LFB118:
	.loc 16 35 1
	.cfi_startproc
	push	rbp	#
	.cfi_def_cfa_offset 16
	.cfi_offset 6, -16
	mov	rbp, rsp	#,
	.cfi_def_cfa_register 6
	sub	rsp, 32	#,
	mov	QWORD PTR -8[rbp], rdi	# var, var
	mov	DWORD PTR -12[rbp], esi	# dest, dest
	mov	QWORD PTR -24[rbp], rdx	# name, name
	mov	QWORD PTR -32[rbp], rcx	# rhs, rhs
# compiler/assign/assign.h:37: 	if( !var ){ var = GlobalPush( &dest, name, rhs->value ); }
	.loc 16 37 4
	cmp	QWORD PTR -8[rbp], 0	# var,
	jne	.L421	#,
# compiler/assign/assign.h:37: 	if( !var ){ var = GlobalPush( &dest, name, rhs->value ); }
	.loc 16 37 20 discriminator 1
	mov	rax, QWORD PTR -32[rbp]	# tmp89, rhs
	mov	edx, DWORD PTR 8[rax]	# tmp90, rhs_13(D)->value
	mov	rcx, QWORD PTR 16[rax]	# tmp91, rhs_13(D)->value
	mov	rsi, QWORD PTR -24[rbp]	# tmp92, name
	lea	rax, -12[rbp]	# tmp93,
	mov	rdi, rax	#, tmp93
	call	GlobalPush	#
	mov	QWORD PTR -8[rbp], rax	# var, tmp94
.L421:
# compiler/assign/assign.h:38: 	var->value = rhs->value;
	.loc 16 38 13
	mov	rcx, QWORD PTR -8[rbp]	# tmp95, var
	mov	rax, QWORD PTR -32[rbp]	# tmp96, rhs
	mov	rdx, QWORD PTR 16[rax]	#, rhs_13(D)->value
	mov	rax, QWORD PTR 8[rax]	# tmp97, rhs_13(D)->value
	mov	QWORD PTR 8[rcx], rax	# var_6->value, tmp97
	mov	QWORD PTR 16[rcx], rdx	# var_6->value,
# compiler/assign/assign.h:39: 	goto *types[ rhs->type ];
	.loc 16 39 18
	mov	rax, QWORD PTR -32[rbp]	# tmp98, rhs
	mov	eax, DWORD PTR [rax]	# _1, rhs_13(D)->type
# compiler/assign/assign.h:39: 	goto *types[ rhs->type ];
	.loc 16 39 13
	mov	eax, eax	# tmp99, _1
	lea	rdx, 0[0+rax*8]	# tmp100,
	lea	rax, types.35[rip]	# tmp101,
	mov	rax, QWORD PTR [rdx+rax]	# _2, types[_1]
# compiler/assign/assign.h:39: 	goto *types[ rhs->type ];
	.loc 16 39 2
	nop	
	jmp	rax	# _2
.L423:
	endbr64	
# compiler/assign/assign.h:40: 	CONST: return GlobalAssignConst( dest, var );
	.loc 16 40 16
	mov	eax, DWORD PTR -12[rbp]	# dest.16_3, dest
	mov	rdx, QWORD PTR -8[rbp]	# tmp102, var
	mov	rsi, rdx	#, tmp102
	mov	edi, eax	#, dest.16_3
	call	GlobalAssignConst	#
	jmp	.L424	#
.L425:
	endbr64	
# compiler/assign/assign.h:41: 	REF: return GlobalAssignRef( dest, var );
	.loc 16 41 14
	mov	eax, DWORD PTR -12[rbp]	# dest.17_4, dest
	mov	rdx, QWORD PTR -8[rbp]	# tmp103, var
	mov	rsi, rdx	#, tmp103
	mov	edi, eax	#, dest.17_4
	call	GlobalAssignRef	#
	jmp	.L424	#
.L426:
	endbr64	
# compiler/assign/assign.h:42: 	CALL: return GlobalAssignCall( dest, var );
	.loc 16 42 15
	mov	eax, DWORD PTR -12[rbp]	# dest.18_5, dest
	mov	rdx, QWORD PTR -8[rbp]	# tmp104, var
	mov	rsi, rdx	#, tmp104
	mov	edi, eax	#, dest.18_5
	call	GlobalAssignCall	#
.L424:
# compiler/assign/assign.h:43: }
	.loc 16 43 1
	leave	
	.cfi_def_cfa 7, 8
	ret	
	.cfi_endproc
.LFE118:
	.size	GlobalAssign, .-GlobalAssign
	.globl	CompileAssign
	.type	CompileAssign, @function
CompileAssign:
.LFB119:
	.loc 16 46 1
	.cfi_startproc
	endbr64	
	push	rbp	#
	.cfi_def_cfa_offset 16
	.cfi_offset 6, -16
	mov	rbp, rsp	#,
	.cfi_def_cfa_register 6
	sub	rsp, 48	#,
	mov	QWORD PTR -40[rbp], rdi	# name, name
	mov	QWORD PTR -48[rbp], rsi	# rhs, rhs
# compiler/assign/assign.h:46: {
	.loc 16 46 1
	mov	rax, QWORD PTR fs:40	# tmp101, MEM[(<address-space-1> long unsigned int *)40B]
	mov	QWORD PTR -8[rbp], rax	# D.6696, tmp101
	xor	eax, eax	# tmp101
# compiler/assign/assign.h:47: 	Compiler *compiler = GetCompiler( );
	.loc 16 47 23
	call	GetCompiler	#
	mov	QWORD PTR -24[rbp], rax	# compiler, tmp87
# compiler/assign/assign.h:48: 	if( !compiler->fn ){ return GlobalAssign( NULL, 0, name, rhs ); }
	.loc 16 48 15
	mov	rax, QWORD PTR -24[rbp]	# tmp88, compiler
	mov	rax, QWORD PTR [rax]	# _1, compiler_8->fn
# compiler/assign/assign.h:48: 	if( !compiler->fn ){ return GlobalAssign( NULL, 0, name, rhs ); }
	.loc 16 48 4
	test	rax, rax	# _1
	jne	.L428	#,
# compiler/assign/assign.h:48: 	if( !compiler->fn ){ return GlobalAssign( NULL, 0, name, rhs ); }
	.loc 16 48 30 discriminator 1
	mov	rdx, QWORD PTR -48[rbp]	# tmp89, rhs
	mov	rax, QWORD PTR -40[rbp]	# tmp90, name
	mov	rcx, rdx	#, tmp89
	mov	rdx, rax	#, tmp90
	mov	esi, 0	#,
	mov	edi, 0	#,
	call	GlobalAssign	#
# compiler/assign/assign.h:48: 	if( !compiler->fn ){ return GlobalAssign( NULL, 0, name, rhs ); }
	.loc 16 48 30 is_stmt 0
	jmp	.L431	#
.L428:
# compiler/assign/assign.h:49: 	U32 idx = 0;
	.loc 16 49 6 is_stmt 1
	mov	DWORD PTR -28[rbp], 0	# idx,
# compiler/assign/assign.h:50: 	Var *var = GlobalGet( &idx, name );
	.loc 16 50 13
	mov	rdx, QWORD PTR -40[rbp]	# tmp91, name
	lea	rax, -28[rbp]	# tmp92,
	mov	rsi, rdx	#, tmp91
	mov	rdi, rax	#, tmp92
	call	GlobalGet	#
	mov	QWORD PTR -16[rbp], rax	# var, tmp93
# compiler/assign/assign.h:51: 	if( var ){ return GlobalAssign( var, idx, name, rhs ); } /* global reassign */
	.loc 16 51 4
	cmp	QWORD PTR -16[rbp], 0	# var,
	je	.L430	#,
# compiler/assign/assign.h:51: 	if( var ){ return GlobalAssign( var, idx, name, rhs ); } /* global reassign */
	.loc 16 51 20 discriminator 1
	mov	esi, DWORD PTR -28[rbp]	# idx.15_2, idx
	mov	rcx, QWORD PTR -48[rbp]	# tmp94, rhs
	mov	rdx, QWORD PTR -40[rbp]	# tmp95, name
	mov	rax, QWORD PTR -16[rbp]	# tmp96, var
	mov	rdi, rax	#, tmp96
	call	GlobalAssign	#
# compiler/assign/assign.h:51: 	if( var ){ return GlobalAssign( var, idx, name, rhs ); } /* global reassign */
	.loc 16 51 20 is_stmt 0
	jmp	.L431	#
.L430:
# compiler/assign/assign.h:52: 	return LocalAssign( compiler->fn, name, rhs ); /* local assign or reassign */
	.loc 16 52 9 is_stmt 1
	mov	rax, QWORD PTR -24[rbp]	# tmp97, compiler
	mov	rax, QWORD PTR [rax]	# _3, compiler_8->fn
	mov	rdx, QWORD PTR -48[rbp]	# tmp98, rhs
	mov	rcx, QWORD PTR -40[rbp]	# tmp99, name
	mov	rsi, rcx	#, tmp99
	mov	rdi, rax	#, _3
	call	LocalAssign	#
.L431:
# compiler/assign/assign.h:53: }
	.loc 16 53 1
	mov	rdx, QWORD PTR -8[rbp]	# tmp102, D.6696
	sub	rdx, QWORD PTR fs:40	# tmp102, MEM[(<address-space-1> long unsigned int *)40B]
	je	.L432	#,
	call	__stack_chk_fail@PLT	#
.L432:
	leave	
	.cfi_def_cfa 7, 8
	ret	
	.cfi_endproc
.LFE119:
	.size	CompileAssign, .-CompileAssign
	.section	.rodata
.LC10:
	.string	"Illegal Unary Operation: %d\n"
	.text
	.globl	EvalUnaErr
	.type	EvalUnaErr, @function
EvalUnaErr:
.LFB120:
	.file 17 "compiler/unary/eval.h"
	.loc 17 2 1
	.cfi_startproc
	endbr64	
	push	rbp	#
	.cfi_def_cfa_offset 16
	.cfi_offset 6, -16
	mov	rbp, rsp	#,
	.cfi_def_cfa_register 6
	push	rbx	#
	sub	rsp, 24	#,
	.cfi_offset 3, -24
	mov	DWORD PTR -20[rbp], edi	# op, op
	mov	QWORD PTR -32[rbp], rsi	# rhs, rhs
# compiler/unary/eval.h:3: 	Throw( "Illegal Unary Operation: %d\n", op );
	.loc 17 3 2
	mov	eax, DWORD PTR -20[rbp]	# tmp86, op
	mov	esi, eax	#, tmp86
	lea	rax, .LC10[rip]	# tmp87,
	mov	rdi, rax	#, tmp87
	mov	eax, 0	#,
	call	Throw	#
# compiler/unary/eval.h:4: 	return ( Value ){ 0 };
	.loc 17 4 9
	mov	eax, 0	# D.5847,
	mov	edx, 0	# D.5847,
	mov	rsi, rax	# tmp89, D.5847
	mov	rdi, rdx	#, D.5847
	mov	rcx, rax	# tmp90, D.5847
	mov	rbx, rdx	#, D.5847
	mov	eax, esi	# <retval>, tmp89
	mov	rdx, rbx	# <retval>,
# compiler/unary/eval.h:5: }
	.loc 17 5 1
	mov	rbx, QWORD PTR -8[rbp]	#,
	leave	
	.cfi_def_cfa 7, 8
	ret	
	.cfi_endproc
.LFE120:
	.size	EvalUnaErr, .-EvalUnaErr
	.globl	EvalNot
	.type	EvalNot, @function
EvalNot:
.LFB121:
	.loc 17 8 1
	.cfi_startproc
	endbr64	
	push	rbp	#
	.cfi_def_cfa_offset 16
	.cfi_offset 6, -16
	mov	rbp, rsp	#,
	.cfi_def_cfa_register 6
	push	rbx	#
	.cfi_offset 3, -24
	mov	QWORD PTR -24[rbp], rdi	# rhs, rhs
# compiler/unary/eval.h:10: 	goto *types[ rhs->type ];
	.loc 17 10 18
	mov	rcx, QWORD PTR -24[rbp]	# tmp96, rhs
	mov	ecx, DWORD PTR [rcx]	# _1, rhs_11(D)->type
# compiler/unary/eval.h:10: 	goto *types[ rhs->type ];
	.loc 17 10 13
	mov	ecx, ecx	# tmp97, _1
	lea	rsi, 0[0+rcx*8]	# tmp98,
	lea	rcx, types.34[rip]	# tmp99,
	mov	rcx, QWORD PTR [rsi+rcx]	# _2, types[_1]
# compiler/unary/eval.h:10: 	goto *types[ rhs->type ];
	.loc 17 10 2
	nop	
	jmp	rcx	# _2
.L437:
	endbr64	
# compiler/unary/eval.h:11: 	I64: return VALUE( I64, i64, !rhs->i64 );
	.loc 17 11 14
	mov	rcx, QWORD PTR -24[rbp]	# tmp100, rhs
	mov	rcx, QWORD PTR 8[rcx]	# _3, rhs_11(D)->D.4160.i64
	test	rcx, rcx	# _3
	sete	cl	#, _4
	movzx	ecx, cl	# _5, _4
	mov	rdi, rax	# tmp102, D.5850
	movabs	rsi, -4294967296	# tmp104,
	and	rsi, rdi	# tmp103, tmp102
	mov	rax, rsi	# D.5850, tmp103
	mov	rdx, rcx	# D.5850, _5
	jmp	.L438	#
.L439:
	endbr64	
# compiler/unary/eval.h:12: 	F64: return VALUE( F64, f64, !rhs->f64 );
	.loc 17 12 14
	mov	rcx, QWORD PTR -24[rbp]	# tmp105, rhs
	movsd	xmm0, QWORD PTR 8[rcx]	# _6, rhs_11(D)->D.4160.f64
	pxor	xmm1, xmm1	# tmp106
	ucomisd	xmm0, xmm1	# _6, tmp106
	jp	.L440	#,
	pxor	xmm1, xmm1	# tmp107
	ucomisd	xmm0, xmm1	# _6, tmp107
	jne	.L440	#,
# compiler/unary/eval.h:12: 	F64: return VALUE( F64, f64, !rhs->f64 );
	.loc 17 12 14 is_stmt 0 discriminator 1
	movsd	xmm0, QWORD PTR .LC12[rip]	# iftmp.22_8,
	jmp	.L442	#
.L440:
# compiler/unary/eval.h:12: 	F64: return VALUE( F64, f64, !rhs->f64 );
	.loc 17 12 14 discriminator 2
	pxor	xmm0, xmm0	# iftmp.22_8
.L442:
# compiler/unary/eval.h:12: 	F64: return VALUE( F64, f64, !rhs->f64 );
	.loc 17 12 14 discriminator 4
	mov	rsi, rax	# tmp109, D.5850
	movabs	rcx, -4294967296	# tmp111,
	and	rcx, rsi	# tmp110, tmp109
	or	rcx, 1	# tmp112,
	mov	rax, rcx	# D.5850, tmp112
	movq	rdx, xmm0	# D.5850, iftmp.22_8
# compiler/unary/eval.h:12: 	F64: return VALUE( F64, f64, !rhs->f64 );
	.loc 17 12 14
	jmp	.L438	#
.L443:
	endbr64	
# compiler/unary/eval.h:13: 	STR: return VALUE( STR, str, rhs->str );
	.loc 17 13 14 is_stmt 1
	mov	rcx, QWORD PTR -24[rbp]	# tmp113, rhs
	mov	rsi, QWORD PTR 8[rcx]	# _7, rhs_11(D)->D.4160.str
	mov	rdi, rax	# tmp115, D.5850
	movabs	rcx, -4294967296	# tmp117,
	and	rcx, rdi	# tmp116, tmp115
	or	rcx, 2	# tmp118,
	mov	rax, rcx	# D.5850, tmp118
	mov	rdx, rsi	# D.5850, _7
.L438:
# compiler/unary/eval.h:14: }
	.loc 17 14 1
	mov	rsi, rax	# tmp120, D.5850
	mov	rdi, rdx	#, D.5850
	mov	rcx, rax	# tmp121, D.5850
	mov	rbx, rdx	#, D.5850
	mov	eax, esi	# <retval>, tmp120
	mov	rdx, rbx	# <retval>,
	mov	rbx, QWORD PTR -8[rbp]	#,
	leave	
	.cfi_def_cfa 7, 8
	ret	
	.cfi_endproc
.LFE121:
	.size	EvalNot, .-EvalNot
	.globl	EvalBnot
	.type	EvalBnot, @function
EvalBnot:
.LFB122:
	.loc 17 17 1
	.cfi_startproc
	endbr64	
	push	rbp	#
	.cfi_def_cfa_offset 16
	.cfi_offset 6, -16
	mov	rbp, rsp	#,
	.cfi_def_cfa_register 6
	push	rbx	#
	.cfi_offset 3, -24
	mov	QWORD PTR -24[rbp], rdi	# rhs, rhs
# compiler/unary/eval.h:19: 	goto *types[ rhs->type ];
	.loc 17 19 18
	mov	rcx, QWORD PTR -24[rbp]	# tmp97, rhs
	mov	ecx, DWORD PTR [rcx]	# _1, rhs_12(D)->type
# compiler/unary/eval.h:19: 	goto *types[ rhs->type ];
	.loc 17 19 13
	mov	ecx, ecx	# tmp98, _1
	lea	rsi, 0[0+rcx*8]	# tmp99,
	lea	rcx, types.33[rip]	# tmp100,
	mov	rcx, QWORD PTR [rsi+rcx]	# _2, types[_1]
# compiler/unary/eval.h:19: 	goto *types[ rhs->type ];
	.loc 17 19 2
	nop	
	jmp	rcx	# _2
.L448:
	endbr64	
# compiler/unary/eval.h:20: 	I64: return VALUE( I64, i64, ~rhs->i64 );
	.loc 17 20 14
	mov	rcx, QWORD PTR -24[rbp]	# tmp101, rhs
	mov	rcx, QWORD PTR 8[rcx]	# _3, rhs_12(D)->D.4160.i64
	not	rcx	# _4
	mov	rdi, rax	# tmp103, D.5859
	movabs	rsi, -4294967296	# tmp105,
	and	rsi, rdi	# tmp104, tmp103
	mov	rax, rsi	# D.5859, tmp104
	mov	rdx, rcx	# D.5859, _4
	jmp	.L449	#
.L450:
	endbr64	
# compiler/unary/eval.h:21: 	F64: return VALUE( F64, f64, ~( I64 )rhs->f64 );
	.loc 17 21 14
	mov	rcx, QWORD PTR -24[rbp]	# tmp106, rhs
	movsd	xmm0, QWORD PTR 8[rcx]	# _5, rhs_12(D)->D.4160.f64
	cvttsd2si	rcx, xmm0	# _6, _5
	not	rcx	# _7
	pxor	xmm0, xmm0	# _8
	cvtsi2sd	xmm0, rcx	# _8, _7
	mov	rsi, rax	# tmp108, D.5859
	movabs	rcx, -4294967296	# tmp110,
	and	rcx, rsi	# tmp109, tmp108
	or	rcx, 1	# tmp111,
	mov	rax, rcx	# D.5859, tmp111
	movq	rdx, xmm0	# D.5859, _8
	jmp	.L449	#
.L451:
	endbr64	
# compiler/unary/eval.h:22: 	STR: return VALUE( STR, str, rhs->str );
	.loc 17 22 14
	mov	rcx, QWORD PTR -24[rbp]	# tmp112, rhs
	mov	rsi, QWORD PTR 8[rcx]	# _9, rhs_12(D)->D.4160.str
	mov	rdi, rax	# tmp114, D.5859
	movabs	rcx, -4294967296	# tmp116,
	and	rcx, rdi	# tmp115, tmp114
	or	rcx, 2	# tmp117,
	mov	rax, rcx	# D.5859, tmp117
	mov	rdx, rsi	# D.5859, _9
.L449:
# compiler/unary/eval.h:23: }
	.loc 17 23 1
	mov	rsi, rax	# tmp119, D.5859
	mov	rdi, rdx	#, D.5859
	mov	rcx, rax	# tmp120, D.5859
	mov	rbx, rdx	#, D.5859
	mov	eax, esi	# <retval>, tmp119
	mov	rdx, rbx	# <retval>,
	mov	rbx, QWORD PTR -8[rbp]	#,
	leave	
	.cfi_def_cfa 7, 8
	ret	
	.cfi_endproc
.LFE122:
	.size	EvalBnot, .-EvalBnot
	.globl	EvalPlus
	.type	EvalPlus, @function
EvalPlus:
.LFB123:
	.loc 17 26 1
	.cfi_startproc
	endbr64	
	push	rbp	#
	.cfi_def_cfa_offset 16
	.cfi_offset 6, -16
	mov	rbp, rsp	#,
	.cfi_def_cfa_register 6
	push	rbx	#
	.cfi_offset 3, -24
	mov	QWORD PTR -24[rbp], rdi	# rhs, rhs
# compiler/unary/eval.h:28: 	goto *types[ rhs->type ];
	.loc 17 28 18
	mov	rcx, QWORD PTR -24[rbp]	# tmp93, rhs
	mov	ecx, DWORD PTR [rcx]	# _1, rhs_8(D)->type
# compiler/unary/eval.h:28: 	goto *types[ rhs->type ];
	.loc 17 28 13
	mov	ecx, ecx	# tmp94, _1
	lea	rsi, 0[0+rcx*8]	# tmp95,
	lea	rcx, types.32[rip]	# tmp96,
	mov	rcx, QWORD PTR [rsi+rcx]	# _2, types[_1]
# compiler/unary/eval.h:28: 	goto *types[ rhs->type ];
	.loc 17 28 2
	nop	
	jmp	rcx	# _2
.L455:
	endbr64	
# compiler/unary/eval.h:29: 	I64: return VALUE( I64, i64, +rhs->i64 );
	.loc 17 29 14
	mov	rcx, QWORD PTR -24[rbp]	# tmp97, rhs
	mov	rcx, QWORD PTR 8[rcx]	# _3, rhs_8(D)->D.4160.i64
	mov	rdi, rax	# tmp99, D.5864
	movabs	rsi, -4294967296	# tmp101,
	and	rsi, rdi	# tmp100, tmp99
	mov	rax, rsi	# D.5864, tmp100
	mov	rdx, rcx	# D.5864, _3
	jmp	.L456	#
.L457:
	endbr64	
# compiler/unary/eval.h:30: 	F64: return VALUE( F64, f64, +rhs->f64 );
	.loc 17 30 14
	mov	rcx, QWORD PTR -24[rbp]	# tmp102, rhs
	movsd	xmm0, QWORD PTR 8[rcx]	# _4, rhs_8(D)->D.4160.f64
	mov	rsi, rax	# tmp104, D.5864
	movabs	rcx, -4294967296	# tmp106,
	and	rcx, rsi	# tmp105, tmp104
	or	rcx, 1	# tmp107,
	mov	rax, rcx	# D.5864, tmp107
	movq	rdx, xmm0	# D.5864, _4
	jmp	.L456	#
.L458:
	endbr64	
# compiler/unary/eval.h:31: 	STR: return VALUE( STR, str, rhs->str );
	.loc 17 31 14
	mov	rcx, QWORD PTR -24[rbp]	# tmp108, rhs
	mov	rsi, QWORD PTR 8[rcx]	# _5, rhs_8(D)->D.4160.str
	mov	rdi, rax	# tmp110, D.5864
	movabs	rcx, -4294967296	# tmp112,
	and	rcx, rdi	# tmp111, tmp110
	or	rcx, 2	# tmp113,
	mov	rax, rcx	# D.5864, tmp113
	mov	rdx, rsi	# D.5864, _5
.L456:
# compiler/unary/eval.h:32: }
	.loc 17 32 1
	mov	rsi, rax	# tmp115, D.5864
	mov	rdi, rdx	#, D.5864
	mov	rcx, rax	# tmp116, D.5864
	mov	rbx, rdx	#, D.5864
	mov	eax, esi	# <retval>, tmp115
	mov	rdx, rbx	# <retval>,
	mov	rbx, QWORD PTR -8[rbp]	#,
	leave	
	.cfi_def_cfa 7, 8
	ret	
	.cfi_endproc
.LFE123:
	.size	EvalPlus, .-EvalPlus
	.globl	EvalMinus
	.type	EvalMinus, @function
EvalMinus:
.LFB124:
	.loc 17 35 1
	.cfi_startproc
	endbr64	
	push	rbp	#
	.cfi_def_cfa_offset 16
	.cfi_offset 6, -16
	mov	rbp, rsp	#,
	.cfi_def_cfa_register 6
	push	rbx	#
	.cfi_offset 3, -24
	mov	QWORD PTR -24[rbp], rdi	# rhs, rhs
# compiler/unary/eval.h:37: 	goto *types[ rhs->type ];
	.loc 17 37 18
	mov	rcx, QWORD PTR -24[rbp]	# tmp95, rhs
	mov	ecx, DWORD PTR [rcx]	# _1, rhs_10(D)->type
# compiler/unary/eval.h:37: 	goto *types[ rhs->type ];
	.loc 17 37 13
	mov	ecx, ecx	# tmp96, _1
	lea	rsi, 0[0+rcx*8]	# tmp97,
	lea	rcx, types.31[rip]	# tmp98,
	mov	rcx, QWORD PTR [rsi+rcx]	# _2, types[_1]
# compiler/unary/eval.h:37: 	goto *types[ rhs->type ];
	.loc 17 37 2
	nop	
	jmp	rcx	# _2
.L462:
	endbr64	
# compiler/unary/eval.h:38: 	I64: return VALUE( I64, i64, -rhs->i64 );
	.loc 17 38 14
	mov	rcx, QWORD PTR -24[rbp]	# tmp99, rhs
	mov	rcx, QWORD PTR 8[rcx]	# _3, rhs_10(D)->D.4160.i64
	neg	rcx	# _4
	mov	rdi, rax	# tmp101, D.5869
	movabs	rsi, -4294967296	# tmp103,
	and	rsi, rdi	# tmp102, tmp101
	mov	rax, rsi	# D.5869, tmp102
	mov	rdx, rcx	# D.5869, _4
	jmp	.L463	#
.L464:
	endbr64	
# compiler/unary/eval.h:39: 	F64: return VALUE( F64, f64, -rhs->f64 );
	.loc 17 39 14
	mov	rcx, QWORD PTR -24[rbp]	# tmp104, rhs
	movsd	xmm0, QWORD PTR 8[rcx]	# _5, rhs_10(D)->D.4160.f64
	movq	xmm1, QWORD PTR .LC13[rip]	# tmp105,
	xorpd	xmm0, xmm1	# _6, tmp105
	mov	rsi, rax	# tmp107, D.5869
	movabs	rcx, -4294967296	# tmp109,
	and	rcx, rsi	# tmp108, tmp107
	or	rcx, 1	# tmp110,
	mov	rax, rcx	# D.5869, tmp110
	movq	rdx, xmm0	# D.5869, _6
	jmp	.L463	#
.L465:
	endbr64	
# compiler/unary/eval.h:40: 	STR: return VALUE( STR, str, rhs->str );
	.loc 17 40 14
	mov	rcx, QWORD PTR -24[rbp]	# tmp111, rhs
	mov	rsi, QWORD PTR 8[rcx]	# _7, rhs_10(D)->D.4160.str
	mov	rdi, rax	# tmp113, D.5869
	movabs	rcx, -4294967296	# tmp115,
	and	rcx, rdi	# tmp114, tmp113
	or	rcx, 2	# tmp116,
	mov	rax, rcx	# D.5869, tmp116
	mov	rdx, rsi	# D.5869, _7
.L463:
# compiler/unary/eval.h:41: }
	.loc 17 41 1
	mov	rsi, rax	# tmp118, D.5869
	mov	rdi, rdx	#, D.5869
	mov	rcx, rax	# tmp119, D.5869
	mov	rbx, rdx	#, D.5869
	mov	eax, esi	# <retval>, tmp118
	mov	rdx, rbx	# <retval>,
	mov	rbx, QWORD PTR -8[rbp]	#,
	leave	
	.cfi_def_cfa 7, 8
	ret	
	.cfi_endproc
.LFE124:
	.size	EvalMinus, .-EvalMinus
	.globl	EvalInc
	.type	EvalInc, @function
EvalInc:
.LFB125:
	.loc 17 44 1
	.cfi_startproc
	endbr64	
	push	rbp	#
	.cfi_def_cfa_offset 16
	.cfi_offset 6, -16
	mov	rbp, rsp	#,
	.cfi_def_cfa_register 6
	push	rbx	#
	.cfi_offset 3, -24
	mov	QWORD PTR -24[rbp], rdi	# rhs, rhs
# compiler/unary/eval.h:46: 	goto *types[ rhs->type ];
	.loc 17 46 18
	mov	rcx, QWORD PTR -24[rbp]	# tmp95, rhs
	mov	ecx, DWORD PTR [rcx]	# _1, rhs_10(D)->type
# compiler/unary/eval.h:46: 	goto *types[ rhs->type ];
	.loc 17 46 13
	mov	ecx, ecx	# tmp96, _1
	lea	rsi, 0[0+rcx*8]	# tmp97,
